
laba2.elf:     file format elf32-avr

Sections:
Idx Name          Size      VMA       LMA       File off  Algn
  0 .text         00002c04  00000000  00000000  00000094  2**1
                  CONTENTS, ALLOC, LOAD, READONLY, CODE
  1 .data         00000116  00800060  00002c04  00002c98  2**0
                  CONTENTS, ALLOC, LOAD, DATA
  2 .bss          00000006  00800176  00800176  00002dae  2**0
                  ALLOC
  3 .debug_aranges 00000180  00000000  00000000  00002dae  2**0
                  CONTENTS, READONLY, DEBUGGING
  4 .debug_pubnames 00000499  00000000  00000000  00002f2e  2**0
                  CONTENTS, READONLY, DEBUGGING
  5 .debug_info   000033c9  00000000  00000000  000033c7  2**0
                  CONTENTS, READONLY, DEBUGGING
  6 .debug_abbrev 0000148f  00000000  00000000  00006790  2**0
                  CONTENTS, READONLY, DEBUGGING
  7 .debug_line   00001e8d  00000000  00000000  00007c1f  2**0
                  CONTENTS, READONLY, DEBUGGING
  8 .debug_frame  000004a0  00000000  00000000  00009aac  2**2
                  CONTENTS, READONLY, DEBUGGING
  9 .debug_str    000006a8  00000000  00000000  00009f4c  2**0
                  CONTENTS, READONLY, DEBUGGING
 10 .debug_loc    000019b8  00000000  00000000  0000a5f4  2**0
                  CONTENTS, READONLY, DEBUGGING
 11 .debug_ranges 000000f8  00000000  00000000  0000bfac  2**0
                  CONTENTS, READONLY, DEBUGGING

Disassembly of section .text:

00000000 <__vectors>:
       0:	0c 94 29 01 	jmp	0x252	; 0x252 <__ctors_end>
       4:	0c 94 46 01 	jmp	0x28c	; 0x28c <__bad_interrupt>
       8:	0c 94 46 01 	jmp	0x28c	; 0x28c <__bad_interrupt>
       c:	0c 94 46 01 	jmp	0x28c	; 0x28c <__bad_interrupt>
      10:	0c 94 46 01 	jmp	0x28c	; 0x28c <__bad_interrupt>
      14:	0c 94 46 01 	jmp	0x28c	; 0x28c <__bad_interrupt>
      18:	0c 94 46 01 	jmp	0x28c	; 0x28c <__bad_interrupt>
      1c:	0c 94 46 01 	jmp	0x28c	; 0x28c <__bad_interrupt>
      20:	0c 94 46 01 	jmp	0x28c	; 0x28c <__bad_interrupt>
      24:	0c 94 46 01 	jmp	0x28c	; 0x28c <__bad_interrupt>
      28:	0c 94 46 01 	jmp	0x28c	; 0x28c <__bad_interrupt>
      2c:	0c 94 46 01 	jmp	0x28c	; 0x28c <__bad_interrupt>
      30:	0c 94 46 01 	jmp	0x28c	; 0x28c <__bad_interrupt>
      34:	0c 94 46 01 	jmp	0x28c	; 0x28c <__bad_interrupt>
      38:	0c 94 46 01 	jmp	0x28c	; 0x28c <__bad_interrupt>
      3c:	0c 94 46 01 	jmp	0x28c	; 0x28c <__bad_interrupt>
      40:	0c 94 46 01 	jmp	0x28c	; 0x28c <__bad_interrupt>
      44:	0c 94 46 01 	jmp	0x28c	; 0x28c <__bad_interrupt>
      48:	0c 94 46 01 	jmp	0x28c	; 0x28c <__bad_interrupt>
      4c:	0c 94 46 01 	jmp	0x28c	; 0x28c <__bad_interrupt>
      50:	0c 94 46 01 	jmp	0x28c	; 0x28c <__bad_interrupt>
      54:	05 a8       	ldd	r0, Z+53	; 0x35
      56:	4c cd       	rjmp	.-1384   	; 0xfffffaf0 <__eeprom_end+0xff7efaf0>
      58:	b2 d4       	rcall	.+2404   	; 0x9be <FillCircle+0x2a>
      5a:	4e b9       	out	0x0e, r20	; 14
      5c:	38 36       	cpi	r19, 0x68	; 104
      5e:	a9 02       	muls	r26, r25
      60:	0c 50       	subi	r16, 0x0C	; 12
      62:	b9 91       	ld	r27, Y+
      64:	86 88       	ldd	r8, Z+22	; 0x16
      66:	08 3c       	cpi	r16, 0xC8	; 200
      68:	a6 aa       	std	Z+54, r10	; 0x36
      6a:	aa 2a       	or	r10, r26
      6c:	be 00       	.word	0x00be	; ????
      6e:	00 00       	nop
      70:	80 3f       	cpi	r24, 0xF0	; 240

00000072 <FONT_CHARS>:
      72:	00 00 00 00 00 00 00 5f 00 00 00 07 00 07 00 14     ......._........
      82:	7f 14 7f 14 24 2a 7f 2a 12 23 13 08 64 62 36 49     ....$*.*.#..db6I
      92:	55 22 50 00 05 03 00 00 00 1c 22 41 00 00 41 22     U"P......."A..A"
      a2:	1c 00 08 2a 1c 2a 08 08 08 3e 08 08 00 50 30 00     ...*.*...>...P0.
      b2:	00 08 08 08 08 08 00 60 60 00 00 20 10 08 04 02     .......``.. ....
      c2:	3e 51 49 45 3e 00 42 7f 40 00 42 61 51 49 46 21     >QIE>.B.@.BaQIF!
      d2:	41 45 4b 31 18 14 12 7f 10 27 45 45 45 39 3c 4a     AEK1.....'EEE9<J
      e2:	49 49 30 01 71 09 05 03 36 49 49 49 36 06 49 49     II0.q...6III6.II
      f2:	29 1e 00 36 36 00 00 00 56 36 00 00 00 08 14 22     )..66...V6....."
     102:	41 14 14 14 14 14 41 22 14 08 00 02 01 51 09 06     A.....A".....Q..
     112:	32 49 79 41 3e 7e 11 11 11 7e 7f 49 49 49 36 3e     2IyA>~...~.III6>
     122:	41 41 41 22 7f 41 41 22 1c 7f 49 49 49 41 7f 09     AAA".AA"..IIIA..
     132:	09 01 01 3e 41 41 51 32 7f 08 08 08 7f 00 41 7f     ...>AAQ2......A.
     142:	41 00 20 40 41 3f 01 7f 08 14 22 41 7f 40 40 40     A. @A?...."A.@@@
     152:	40 7f 02 04 02 7f 7f 04 08 10 7f 3e 41 41 41 3e     @..........>AAA>
     162:	7f 09 09 09 06 3e 41 51 21 5e 7f 09 19 29 46 46     .....>AQ!^...)FF
     172:	49 49 49 31 01 01 7f 01 01 3f 40 40 40 3f 1f 20     III1.....?@@@?. 
     182:	40 20 1f 7f 20 18 20 7f 63 14 08 14 63 03 04 78     @ .. . .c...c..x
     192:	04 03 61 51 49 45 43 00 00 7f 41 41 02 04 08 10     ..aQIEC...AA....
     1a2:	20 41 41 7f 00 00 04 02 01 02 04 40 40 40 40 40      AA........@@@@@
     1b2:	00 01 02 04 00 20 54 54 54 78 7f 48 44 44 38 38     ..... TTTx.HDD88
     1c2:	44 44 44 20 38 44 44 48 7f 38 54 54 54 18 08 7e     DDD 8DDH.8TTT..~
     1d2:	09 01 02 08 14 54 54 3c 7f 08 04 04 78 00 44 7d     .....TT<....x.D}
     1e2:	40 00 20 40 44 3d 00 00 7f 10 28 44 00 41 7f 40     @. @D=....(D.A.@
     1f2:	00 7c 04 18 04 78 7c 08 04 04 78 38 44 44 44 38     .|...x|...x8DDD8
     202:	7c 14 14 14 08 08 14 14 18 7c 7c 08 04 04 08 48     |........||....H
     212:	54 54 54 20 04 3f 44 40 20 3c 40 40 20 7c 1c 20     TTT .?D@ <@@ |. 
     222:	40 20 1c 3c 40 30 40 3c 44 28 10 28 44 0c 50 50     @ .<@0@<D(.(D.PP
     232:	50 3c 44 64 54 4c 44 00 08 36 41 00 00 00 7f 00     P<DdTLD..6A.....
     242:	00 00 41 36 08 00 08 08 2a 1c 08 08 1c 2a 08 08     ..A6....*....*..

00000252 <__ctors_end>:
     252:	11 24       	eor	r1, r1
     254:	1f be       	out	0x3f, r1	; 63
     256:	cf e5       	ldi	r28, 0x5F	; 95
     258:	d4 e0       	ldi	r29, 0x04	; 4
     25a:	de bf       	out	0x3e, r29	; 62
     25c:	cd bf       	out	0x3d, r28	; 61

0000025e <__do_copy_data>:
     25e:	11 e0       	ldi	r17, 0x01	; 1
     260:	a0 e6       	ldi	r26, 0x60	; 96
     262:	b0 e0       	ldi	r27, 0x00	; 0
     264:	e4 e0       	ldi	r30, 0x04	; 4
     266:	fc e2       	ldi	r31, 0x2C	; 44
     268:	02 c0       	rjmp	.+4      	; 0x26e <.do_copy_data_start>

0000026a <.do_copy_data_loop>:
     26a:	05 90       	lpm	r0, Z+
     26c:	0d 92       	st	X+, r0

0000026e <.do_copy_data_start>:
     26e:	a6 37       	cpi	r26, 0x76	; 118
     270:	b1 07       	cpc	r27, r17
     272:	d9 f7       	brne	.-10     	; 0x26a <.do_copy_data_loop>

00000274 <__do_clear_bss>:
     274:	11 e0       	ldi	r17, 0x01	; 1
     276:	a6 e7       	ldi	r26, 0x76	; 118
     278:	b1 e0       	ldi	r27, 0x01	; 1
     27a:	01 c0       	rjmp	.+2      	; 0x27e <.do_clear_bss_start>

0000027c <.do_clear_bss_loop>:
     27c:	1d 92       	st	X+, r1

0000027e <.do_clear_bss_start>:
     27e:	ac 37       	cpi	r26, 0x7C	; 124
     280:	b1 07       	cpc	r27, r17
     282:	e1 f7       	brne	.-8      	; 0x27c <.do_clear_bss_loop>
     284:	0e 94 91 0c 	call	0x1922	; 0x1922 <main>
     288:	0c 94 00 16 	jmp	0x2c00	; 0x2c00 <_exit>

0000028c <__bad_interrupt>:
     28c:	0c 94 00 00 	jmp	0	; 0x0 <__vectors>

00000290 <msDelay>:
{ 0x00, 0x41, 0x36, 0x08, 0x00 }, // }
{ 0x08, 0x08, 0x2A, 0x1C, 0x08 }, // ->
{ 0x08, 0x1C, 0x2A, 0x08, 0x08 }}; // <-};

void msDelay(int delay)  // put into a routine
{  // to remove code inlining
     290:	20 e0       	ldi	r18, 0x00	; 0
     292:	30 e0       	ldi	r19, 0x00	; 0
    milliseconds can be achieved.
 */
void
_delay_loop_2(uint16_t __count)
{
	__asm__ volatile (
     294:	4a ef       	ldi	r20, 0xFA	; 250
     296:	50 e0       	ldi	r21, 0x00	; 0
     298:	05 c0       	rjmp	.+10     	; 0x2a4 <msDelay+0x14>
     29a:	fa 01       	movw	r30, r20
     29c:	31 97       	sbiw	r30, 0x01	; 1
     29e:	f1 f7       	brne	.-4      	; 0x29c <msDelay+0xc>
	for (int i=0;i<delay;i++)  // at cost of timing accuracy
     2a0:	2f 5f       	subi	r18, 0xFF	; 255
     2a2:	3f 4f       	sbci	r19, 0xFF	; 255
     2a4:	28 17       	cp	r18, r24
     2a6:	39 07       	cpc	r19, r25
     2a8:	c4 f3       	brlt	.-16     	; 0x29a <msDelay+0xa>
	_delay_ms(1);
}
     2aa:	08 95       	ret

000002ac <intsqrt>:

unsigned long intsqrt(unsigned long val)
// calculate integer value of square root
{
     2ac:	6f 92       	push	r6
     2ae:	7f 92       	push	r7
     2b0:	8f 92       	push	r8
     2b2:	9f 92       	push	r9
     2b4:	af 92       	push	r10
     2b6:	bf 92       	push	r11
     2b8:	cf 92       	push	r12
     2ba:	df 92       	push	r13
     2bc:	ef 92       	push	r14
     2be:	ff 92       	push	r15
     2c0:	0f 93       	push	r16
     2c2:	1f 93       	push	r17
     2c4:	cf 93       	push	r28
     2c6:	df 93       	push	r29
     2c8:	3b 01       	movw	r6, r22
     2ca:	4c 01       	movw	r8, r24
	unsigned long mulMask = 0x0008000;
	unsigned long retVal  = 0;
	if (val > 0)
     2cc:	61 15       	cp	r22, r1
     2ce:	71 05       	cpc	r23, r1
     2d0:	81 05       	cpc	r24, r1
     2d2:	91 05       	cpc	r25, r1
     2d4:	21 f4       	brne	.+8      	; 0x2de <intsqrt+0x32>
     2d6:	ee 24       	eor	r14, r14
     2d8:	ff 24       	eor	r15, r15
     2da:	87 01       	movw	r16, r14
     2dc:	2b c0       	rjmp	.+86     	; 0x334 <intsqrt+0x88>
     2de:	a1 2c       	mov	r10, r1
     2e0:	90 e8       	ldi	r25, 0x80	; 128
     2e2:	b9 2e       	mov	r11, r25
     2e4:	c1 2c       	mov	r12, r1
     2e6:	d1 2c       	mov	r13, r1
     2e8:	ee 24       	eor	r14, r14
     2ea:	ff 24       	eor	r15, r15
     2ec:	87 01       	movw	r16, r14
     2ee:	c0 e0       	ldi	r28, 0x00	; 0
     2f0:	d0 e0       	ldi	r29, 0x00	; 0
	{
		while (mulMask != 0)
		{
			retVal |= mulMask;
     2f2:	ea 28       	or	r14, r10
     2f4:	fb 28       	or	r15, r11
     2f6:	0c 29       	or	r16, r12
     2f8:	1d 29       	or	r17, r13
			if ((retVal*retVal) > val)
     2fa:	c8 01       	movw	r24, r16
     2fc:	b7 01       	movw	r22, r14
     2fe:	a8 01       	movw	r20, r16
     300:	97 01       	movw	r18, r14
     302:	0e 94 10 13 	call	0x2620	; 0x2620 <__mulsi3>
     306:	66 16       	cp	r6, r22
     308:	77 06       	cpc	r7, r23
     30a:	88 06       	cpc	r8, r24
     30c:	99 06       	cpc	r9, r25
     30e:	50 f4       	brcc	.+20     	; 0x324 <intsqrt+0x78>
			retVal &= ~ mulMask;
     310:	d6 01       	movw	r26, r12
     312:	c5 01       	movw	r24, r10
     314:	80 95       	com	r24
     316:	90 95       	com	r25
     318:	a0 95       	com	r26
     31a:	b0 95       	com	r27
     31c:	e8 22       	and	r14, r24
     31e:	f9 22       	and	r15, r25
     320:	0a 23       	and	r16, r26
     322:	1b 23       	and	r17, r27
			mulMask >>= 1;
     324:	d6 94       	lsr	r13
     326:	c7 94       	ror	r12
     328:	b7 94       	ror	r11
     32a:	a7 94       	ror	r10
     32c:	21 96       	adiw	r28, 0x01	; 1
{
	unsigned long mulMask = 0x0008000;
	unsigned long retVal  = 0;
	if (val > 0)
	{
		while (mulMask != 0)
     32e:	c0 31       	cpi	r28, 0x10	; 16
     330:	d1 05       	cpc	r29, r1
     332:	f9 f6       	brne	.-66     	; 0x2f2 <intsqrt+0x46>
			retVal &= ~ mulMask;
			mulMask >>= 1;
		}
	}
return retVal; 
}
     334:	b7 01       	movw	r22, r14
     336:	c8 01       	movw	r24, r16
     338:	df 91       	pop	r29
     33a:	cf 91       	pop	r28
     33c:	1f 91       	pop	r17
     33e:	0f 91       	pop	r16
     340:	ff 90       	pop	r15
     342:	ef 90       	pop	r14
     344:	df 90       	pop	r13
     346:	cf 90       	pop	r12
     348:	bf 90       	pop	r11
     34a:	af 90       	pop	r10
     34c:	9f 90       	pop	r9
     34e:	8f 90       	pop	r8
     350:	7f 90       	pop	r7
     352:	6f 90       	pop	r6
     354:	08 95       	ret

00000356 <OpenSPI>:
// SPRx - 00=osc/4, 01=osc/16, 10=osc/64, 11=osc/128
//
// SPCR = 0x50: SPI enabled as Master, mode 0, at 16/4 = 4 MHz
void OpenSPI() //start of spi transfer
{
	SPCR = 0x50;  // SPI enabled as Master, Mode0 at 4 MHz 
     356:	80 e5       	ldi	r24, 0x50	; 80
     358:	8d b9       	out	0x0d, r24	; 13
	SetBit(SPSR,SPI2X);  // double the SPI rate: 4-->8 MHz 
     35a:	70 9a       	sbi	0x0e, 0	; 14
}
     35c:	08 95       	ret

0000035e <CloseSPI>:
void CloseSPI() //start of spi transfer
{
	SPCR = 0x00;  // clear SPI enable bit
     35e:	1d b8       	out	0x0d, r1	; 13
}
     360:	08 95       	ret

00000362 <Xfer>:

byte Xfer(byte data) //transfer routine
{
	SPDR = data;  // initiate transfer
     362:	8f b9       	out	0x0f, r24	; 15
	while (!(SPSR & 0x80));  // wait for transfer to complete
     364:	77 9b       	sbis	0x0e, 7	; 14
     366:	fe cf       	rjmp	.-4      	; 0x364 <Xfer+0x2>
	return SPDR;
     368:	8f b1       	in	r24, 0x0f	; 15
}
     36a:	08 95       	ret

0000036c <WriteCmd>:
void WriteCmd (byte cmd) //write command to tft
{
	ClearBit(PORTB,4);  // B1=DC; 0=command, 1=data
     36c:	c4 98       	cbi	0x18, 4	; 24
	SPCR = 0x00;  // clear SPI enable bit
}

byte Xfer(byte data) //transfer routine
{
	SPDR = data;  // initiate transfer
     36e:	8f b9       	out	0x0f, r24	; 15
	while (!(SPSR & 0x80));  // wait for transfer to complete
     370:	77 9b       	sbis	0x0e, 7	; 14
     372:	fe cf       	rjmp	.-4      	; 0x370 <WriteCmd+0x4>
	return SPDR;
     374:	8f b1       	in	r24, 0x0f	; 15
}
void WriteCmd (byte cmd) //write command to tft
{
	ClearBit(PORTB,4);  // B1=DC; 0=command, 1=data
	Xfer(cmd);
	SetBit(PORTB,4);  // return DC high 
     376:	c4 9a       	sbi	0x18, 4	; 24
}
     378:	08 95       	ret

0000037a <WriteByte>:
	SPCR = 0x00;  // clear SPI enable bit
}

byte Xfer(byte data) //transfer routine
{
	SPDR = data;  // initiate transfer
     37a:	8f b9       	out	0x0f, r24	; 15
	while (!(SPSR & 0x80));  // wait for transfer to complete
     37c:	77 9b       	sbis	0x0e, 7	; 14
     37e:	fe cf       	rjmp	.-4      	; 0x37c <WriteByte+0x2>
	return SPDR;
     380:	8f b1       	in	r24, 0x0f	; 15
	SetBit(PORTB,4);  // return DC high 
}
void WriteByte (byte b) //write 8 bit data to tft
{
	Xfer(b);
}
     382:	08 95       	ret

00000384 <WriteWord>:
void WriteWord (int w) //write 16 bit data to tft
{
     384:	9c 01       	movw	r18, r24
	Xfer(w >> 8);  // write upper 8 bits
     386:	89 2f       	mov	r24, r25
     388:	99 0f       	add	r25, r25
     38a:	99 0b       	sbc	r25, r25
	SPCR = 0x00;  // clear SPI enable bit
}

byte Xfer(byte data) //transfer routine
{
	SPDR = data;  // initiate transfer
     38c:	8f b9       	out	0x0f, r24	; 15
	while (!(SPSR & 0x80));  // wait for transfer to complete
     38e:	77 9b       	sbis	0x0e, 7	; 14
     390:	fe cf       	rjmp	.-4      	; 0x38e <WriteWord+0xa>
	return SPDR;
     392:	8f b1       	in	r24, 0x0f	; 15
	SPCR = 0x00;  // clear SPI enable bit
}

byte Xfer(byte data) //transfer routine
{
	SPDR = data;  // initiate transfer
     394:	2f b9       	out	0x0f, r18	; 15
	while (!(SPSR & 0x80));  // wait for transfer to complete
     396:	77 9b       	sbis	0x0e, 7	; 14
     398:	fe cf       	rjmp	.-4      	; 0x396 <WriteWord+0x12>
	return SPDR;
     39a:	8f b1       	in	r24, 0x0f	; 15
}
void WriteWord (int w) //write 16 bit data to tft
{
	Xfer(w >> 8);  // write upper 8 bits
	Xfer(w & 0xFF);  // write lower 8 bits
}
     39c:	08 95       	ret

0000039e <Write888>:
void Write888 (long data, int count) //write 24 bit data to tft
{
     39e:	fa 01       	movw	r30, r20
	byte red = data>>16;  // red = upper 8 bits
     3a0:	9c 01       	movw	r18, r24
     3a2:	55 27       	eor	r21, r21
     3a4:	37 fd       	sbrc	r19, 7
     3a6:	50 95       	com	r21
     3a8:	45 2f       	mov	r20, r21
     3aa:	a2 2f       	mov	r26, r18
	byte green = (data>>8) & 0xFF;  // green = middle 8 bits
     3ac:	27 2f       	mov	r18, r23
     3ae:	38 2f       	mov	r19, r24
     3b0:	49 2f       	mov	r20, r25
     3b2:	55 27       	eor	r21, r21
     3b4:	47 fd       	sbrc	r20, 7
     3b6:	5a 95       	dec	r21
     3b8:	0d c0       	rjmp	.+26     	; 0x3d4 <Write888+0x36>
	SPCR = 0x00;  // clear SPI enable bit
}

byte Xfer(byte data) //transfer routine
{
	SPDR = data;  // initiate transfer
     3ba:	af b9       	out	0x0f, r26	; 15
	while (!(SPSR & 0x80));  // wait for transfer to complete
     3bc:	77 9b       	sbis	0x0e, 7	; 14
     3be:	fe cf       	rjmp	.-4      	; 0x3bc <Write888+0x1e>
	return SPDR;
     3c0:	8f b1       	in	r24, 0x0f	; 15
	SPCR = 0x00;  // clear SPI enable bit
}

byte Xfer(byte data) //transfer routine
{
	SPDR = data;  // initiate transfer
     3c2:	2f b9       	out	0x0f, r18	; 15
	while (!(SPSR & 0x80));  // wait for transfer to complete
     3c4:	77 9b       	sbis	0x0e, 7	; 14
     3c6:	fe cf       	rjmp	.-4      	; 0x3c4 <Write888+0x26>
	return SPDR;
     3c8:	8f b1       	in	r24, 0x0f	; 15
	SPCR = 0x00;  // clear SPI enable bit
}

byte Xfer(byte data) //transfer routine
{
	SPDR = data;  // initiate transfer
     3ca:	6f b9       	out	0x0f, r22	; 15
	while (!(SPSR & 0x80));  // wait for transfer to complete
     3cc:	77 9b       	sbis	0x0e, 7	; 14
     3ce:	fe cf       	rjmp	.-4      	; 0x3cc <Write888+0x2e>
	return SPDR;
     3d0:	8f b1       	in	r24, 0x0f	; 15
void Write888 (long data, int count) //write 24 bit data to tft
{
	byte red = data>>16;  // red = upper 8 bits
	byte green = (data>>8) & 0xFF;  // green = middle 8 bits
	byte blue = data & 0xFF;  // blue = lower 8 bits
	for (;count>0;count--)
     3d2:	31 97       	sbiw	r30, 0x01	; 1
     3d4:	1e 16       	cp	r1, r30
     3d6:	1f 06       	cpc	r1, r31
     3d8:	84 f3       	brlt	.-32     	; 0x3ba <Write888+0x1c>
	{
		WriteByte(red);
		WriteByte(green);
		WriteByte(blue);
	}
}
     3da:	08 95       	ret

000003dc <Write565>:
void Write565 (int data, unsigned int count)
// send 16-bit pixel data to the controller
// note: inlined spi xfer for optimization
{
     3dc:	0f 93       	push	r16
     3de:	1f 93       	push	r17
     3e0:	cf 93       	push	r28
     3e2:	df 93       	push	r29
     3e4:	8c 01       	movw	r16, r24
     3e6:	eb 01       	movw	r28, r22
	WriteCmd(RAMWR);
     3e8:	8c e2       	ldi	r24, 0x2C	; 44
     3ea:	0e 94 b6 01 	call	0x36c	; 0x36c <WriteCmd>
	for (;count>0;count--)
	{
		SPDR = (data >> 8);  // write hi byte
     3ee:	81 2f       	mov	r24, r17
     3f0:	99 27       	eor	r25, r25
     3f2:	87 fd       	sbrc	r24, 7
     3f4:	9a 95       	dec	r25
     3f6:	07 c0       	rjmp	.+14     	; 0x406 <Write565+0x2a>
void Write565 (int data, unsigned int count)
// send 16-bit pixel data to the controller
// note: inlined spi xfer for optimization
{
	WriteCmd(RAMWR);
	for (;count>0;count--)
     3f8:	8f b9       	out	0x0f, r24	; 15
	{
		SPDR = (data >> 8);  // write hi byte
		while (!(SPSR & 0x80));  // wait for transfer to complete
     3fa:	77 9b       	sbis	0x0e, 7	; 14
     3fc:	fe cf       	rjmp	.-4      	; 0x3fa <Write565+0x1e>
		SPDR = (data & 0xFF);  // write lo byte
     3fe:	0f b9       	out	0x0f, r16	; 15
		while (!(SPSR & 0x80));  // wait for transfer to complete
     400:	77 9b       	sbis	0x0e, 7	; 14
     402:	fe cf       	rjmp	.-4      	; 0x400 <Write565+0x24>
void Write565 (int data, unsigned int count)
// send 16-bit pixel data to the controller
// note: inlined spi xfer for optimization
{
	WriteCmd(RAMWR);
	for (;count>0;count--)
     404:	21 97       	sbiw	r28, 0x01	; 1
     406:	20 97       	sbiw	r28, 0x00	; 0
     408:	b9 f7       	brne	.-18     	; 0x3f8 <Write565+0x1c>
		SPDR = (data >> 8);  // write hi byte
		while (!(SPSR & 0x80));  // wait for transfer to complete
		SPDR = (data & 0xFF);  // write lo byte
		while (!(SPSR & 0x80));  // wait for transfer to complete
	}
}
     40a:	df 91       	pop	r29
     40c:	cf 91       	pop	r28
     40e:	1f 91       	pop	r17
     410:	0f 91       	pop	r16
     412:	08 95       	ret

00000414 <SetupPorts>:
	InitDisplay();  // initialize TFT controller 
	ClearScreen();
}
void SetupPorts() //init ports
{
	DDRB |= 0b11110000;  //set B4-B7 as outputs
     414:	87 b3       	in	r24, 0x17	; 23
     416:	80 6f       	ori	r24, 0xF0	; 240
     418:	87 bb       	out	0x17, r24	; 23
	SetBit(PORTB,6);  // start with TFT reset line inactive high
     41a:	c6 9a       	sbi	0x18, 6	; 24
}
     41c:	08 95       	ret

0000041e <HardwareReset>:
void HardwareReset() //reset tft
{
	ClearBit(PORTB,6);  // pull TFT reset low
     41e:	c6 98       	cbi	0x18, 6	; 24
     420:	8a ef       	ldi	r24, 0xFA	; 250
     422:	90 e0       	ldi	r25, 0x00	; 0
     424:	01 97       	sbiw	r24, 0x01	; 1
     426:	f1 f7       	brne	.-4      	; 0x424 <HardwareReset+0x6>
	msDelay(1);  // 1mS is enough 
	SetBit(PORTB,6);  // return TFT reset high
     428:	c6 9a       	sbi	0x18, 6	; 24
     42a:	80 e0       	ldi	r24, 0x00	; 0
     42c:	90 e0       	ldi	r25, 0x00	; 0
     42e:	2a ef       	ldi	r18, 0xFA	; 250
     430:	30 e0       	ldi	r19, 0x00	; 0
     432:	f9 01       	movw	r30, r18
     434:	31 97       	sbiw	r30, 0x01	; 1
     436:	f1 f7       	brne	.-4      	; 0x434 <HardwareReset+0x16>
{ 0x08, 0x08, 0x2A, 0x1C, 0x08 }, // ->
{ 0x08, 0x1C, 0x2A, 0x08, 0x08 }}; // <-};

void msDelay(int delay)  // put into a routine
{  // to remove code inlining
	for (int i=0;i<delay;i++)  // at cost of timing accuracy
     438:	01 96       	adiw	r24, 0x01	; 1
     43a:	86 39       	cpi	r24, 0x96	; 150
     43c:	91 05       	cpc	r25, r1
     43e:	c9 f7       	brne	.-14     	; 0x432 <HardwareReset+0x14>
{
	ClearBit(PORTB,6);  // pull TFT reset low
	msDelay(1);  // 1mS is enough 
	SetBit(PORTB,6);  // return TFT reset high
	msDelay(150);  // wait 150mS for reset to finish
}
     440:	08 95       	ret

00000442 <InitDisplay>:
void InitDisplay() //itin tft
{
	HardwareReset();  // initialize display controller
     442:	0e 94 0f 02 	call	0x41e	; 0x41e <HardwareReset>
	WriteCmd(SLPOUT);  // take display out of sleep mode
     446:	81 e1       	ldi	r24, 0x11	; 17
     448:	0e 94 b6 01 	call	0x36c	; 0x36c <WriteCmd>
     44c:	80 e0       	ldi	r24, 0x00	; 0
     44e:	90 e0       	ldi	r25, 0x00	; 0
     450:	2a ef       	ldi	r18, 0xFA	; 250
     452:	30 e0       	ldi	r19, 0x00	; 0
     454:	f9 01       	movw	r30, r18
     456:	31 97       	sbiw	r30, 0x01	; 1
     458:	f1 f7       	brne	.-4      	; 0x456 <InitDisplay+0x14>
{ 0x08, 0x08, 0x2A, 0x1C, 0x08 }, // ->
{ 0x08, 0x1C, 0x2A, 0x08, 0x08 }}; // <-};

void msDelay(int delay)  // put into a routine
{  // to remove code inlining
	for (int i=0;i<delay;i++)  // at cost of timing accuracy
     45a:	01 96       	adiw	r24, 0x01	; 1
     45c:	86 39       	cpi	r24, 0x96	; 150
     45e:	91 05       	cpc	r25, r1
     460:	c9 f7       	brne	.-14     	; 0x454 <InitDisplay+0x12>
void InitDisplay() //itin tft
{
	HardwareReset();  // initialize display controller
	WriteCmd(SLPOUT);  // take display out of sleep mode
	msDelay(150);  // wait 150mS for TFT driver circuits
	WriteCmd(COLMOD);  // select color mode: 
     462:	8a e3       	ldi	r24, 0x3A	; 58
     464:	0e 94 b6 01 	call	0x36c	; 0x36c <WriteCmd>
	SPCR = 0x00;  // clear SPI enable bit
}

byte Xfer(byte data) //transfer routine
{
	SPDR = data;  // initiate transfer
     468:	85 e0       	ldi	r24, 0x05	; 5
     46a:	8f b9       	out	0x0f, r24	; 15
	while (!(SPSR & 0x80));  // wait for transfer to complete
     46c:	77 9b       	sbis	0x0e, 7	; 14
     46e:	fe cf       	rjmp	.-4      	; 0x46c <__stack+0xd>
	return SPDR;
     470:	8f b1       	in	r24, 0x0f	; 15
	HardwareReset();  // initialize display controller
	WriteCmd(SLPOUT);  // take display out of sleep mode
	msDelay(150);  // wait 150mS for TFT driver circuits
	WriteCmd(COLMOD);  // select color mode: 
	WriteByte(0x05);  // mode 5 = 16bit pixels (RGB565)
	WriteCmd(DISPON);  // turn display on!
     472:	89 e2       	ldi	r24, 0x29	; 41
     474:	0e 94 b6 01 	call	0x36c	; 0x36c <WriteCmd>
}
     478:	08 95       	ret

0000047a <SetAddrWindow>:
void SetAddrWindow(byte x0, byte y0, byte x1, byte y1) //rectangular area
{
     47a:	ef 92       	push	r14
     47c:	ff 92       	push	r15
     47e:	0f 93       	push	r16
     480:	1f 93       	push	r17
     482:	18 2f       	mov	r17, r24
     484:	f6 2e       	mov	r15, r22
     486:	04 2f       	mov	r16, r20
     488:	e2 2e       	mov	r14, r18
	WriteCmd(CASET);  // set column range (x0,x1)
     48a:	8a e2       	ldi	r24, 0x2A	; 42
     48c:	0e 94 b6 01 	call	0x36c	; 0x36c <WriteCmd>
	WriteWord(x0);
     490:	81 2f       	mov	r24, r17
     492:	90 e0       	ldi	r25, 0x00	; 0
     494:	0e 94 c2 01 	call	0x384	; 0x384 <WriteWord>
	WriteWord(x1);
     498:	80 2f       	mov	r24, r16
     49a:	90 e0       	ldi	r25, 0x00	; 0
     49c:	0e 94 c2 01 	call	0x384	; 0x384 <WriteWord>
	WriteCmd(RASET);  // set row range (y0,y1)
     4a0:	8b e2       	ldi	r24, 0x2B	; 43
     4a2:	0e 94 b6 01 	call	0x36c	; 0x36c <WriteCmd>
	WriteWord(y0);
     4a6:	8f 2d       	mov	r24, r15
     4a8:	90 e0       	ldi	r25, 0x00	; 0
     4aa:	0e 94 c2 01 	call	0x384	; 0x384 <WriteWord>
	WriteWord(y1);
     4ae:	8e 2d       	mov	r24, r14
     4b0:	90 e0       	ldi	r25, 0x00	; 0
     4b2:	0e 94 c2 01 	call	0x384	; 0x384 <WriteWord>
}
     4b6:	1f 91       	pop	r17
     4b8:	0f 91       	pop	r16
     4ba:	ff 90       	pop	r15
     4bc:	ef 90       	pop	r14
     4be:	08 95       	ret

000004c0 <ClearScreen>:
void ClearScreen() //clear screen
{
	SetAddrWindow(0,0,XMAX,YMAX);  // set window to entire display
     4c0:	80 e0       	ldi	r24, 0x00	; 0
     4c2:	60 e0       	ldi	r22, 0x00	; 0
     4c4:	4f e7       	ldi	r20, 0x7F	; 127
     4c6:	2f e9       	ldi	r18, 0x9F	; 159
     4c8:	0e 94 3d 02 	call	0x47a	; 0x47a <SetAddrWindow>
	WriteCmd(RAMWR);
     4cc:	8c e2       	ldi	r24, 0x2C	; 44
     4ce:	0e 94 b6 01 	call	0x36c	; 0x36c <WriteCmd>
     4d2:	80 e0       	ldi	r24, 0x00	; 0
     4d4:	90 ea       	ldi	r25, 0xA0	; 160
	for (unsigned int i=40960;i>0;--i)  // byte count = 128*160*2
	{
		SPDR = 0;  // initiate transfer of 0x00
     4d6:	1f b8       	out	0x0f, r1	; 15
		while (!(SPSR & 0x80));  // wait for xfer to finish
     4d8:	77 9b       	sbis	0x0e, 7	; 14
     4da:	fe cf       	rjmp	.-4      	; 0x4d8 <ClearScreen+0x18>
}
void ClearScreen() //clear screen
{
	SetAddrWindow(0,0,XMAX,YMAX);  // set window to entire display
	WriteCmd(RAMWR);
	for (unsigned int i=40960;i>0;--i)  // byte count = 128*160*2
     4dc:	01 97       	sbiw	r24, 0x01	; 1
     4de:	d9 f7       	brne	.-10     	; 0x4d6 <ClearScreen+0x16>
	{
		SPDR = 0;  // initiate transfer of 0x00
		while (!(SPSR & 0x80));  // wait for xfer to finish
	} 
}
     4e0:	08 95       	ret

000004e2 <InitTFT>:
	InitDisplay();  // initialize TFT controller 
	ClearScreen();
}
void SetupPorts() //init ports
{
	DDRB |= 0b11110000;  //set B4-B7 as outputs
     4e2:	87 b3       	in	r24, 0x17	; 23
     4e4:	80 6f       	ori	r24, 0xF0	; 240
     4e6:	87 bb       	out	0x17, r24	; 23
	SetBit(PORTB,6);  // start with TFT reset line inactive high
     4e8:	c6 9a       	sbi	0x18, 6	; 24
		while (!(SPSR & 0x80));  // wait for transfer to complete
	}
}
void InitTFT() {
	SetupPorts();  // use PortB for LCD interface
	HardwareReset();
     4ea:	0e 94 0f 02 	call	0x41e	; 0x41e <HardwareReset>
// SPRx - 00=osc/4, 01=osc/16, 10=osc/64, 11=osc/128
//
// SPCR = 0x50: SPI enabled as Master, mode 0, at 16/4 = 4 MHz
void OpenSPI() //start of spi transfer
{
	SPCR = 0x50;  // SPI enabled as Master, Mode0 at 4 MHz 
     4ee:	80 e5       	ldi	r24, 0x50	; 80
     4f0:	8d b9       	out	0x0d, r24	; 13
	SetBit(SPSR,SPI2X);  // double the SPI rate: 4-->8 MHz 
     4f2:	70 9a       	sbi	0x0e, 0	; 14
}
void InitTFT() {
	SetupPorts();  // use PortB for LCD interface
	HardwareReset();
	OpenSPI();  // start communication to TFT
	InitDisplay();  // initialize TFT controller 
     4f4:	0e 94 21 02 	call	0x442	; 0x442 <InitDisplay>
	ClearScreen();
     4f8:	0e 94 60 02 	call	0x4c0	; 0x4c0 <ClearScreen>
}
     4fc:	08 95       	ret

000004fe <DrawPixel>:
//  ---------------------------------------------------------------------------//  SIMPLE GRAPHICS ROUTINES
//
// note: many routines have byte parameters, to save space,
// but these can easily be changed to int params for larger displays.
void DrawPixel (byte x, byte y, int color) //draw the pixel
{
     4fe:	0f 93       	push	r16
     500:	1f 93       	push	r17
     502:	98 2f       	mov	r25, r24
     504:	26 2f       	mov	r18, r22
     506:	8a 01       	movw	r16, r20
	SetAddrWindow(x,y,x,y);
     508:	49 2f       	mov	r20, r25
     50a:	0e 94 3d 02 	call	0x47a	; 0x47a <SetAddrWindow>
	Write565(color,1);
     50e:	c8 01       	movw	r24, r16
     510:	61 e0       	ldi	r22, 0x01	; 1
     512:	70 e0       	ldi	r23, 0x00	; 0
     514:	0e 94 ee 01 	call	0x3dc	; 0x3dc <Write565>
}
     518:	1f 91       	pop	r17
     51a:	0f 91       	pop	r16
     51c:	08 95       	ret

0000051e <HLine>:
void HLine (byte x0, byte x1, byte y, int color)
// draws a horizontal line in given color
{
     51e:	ef 92       	push	r14
     520:	ff 92       	push	r15
     522:	0f 93       	push	r16
     524:	1f 93       	push	r17
     526:	08 2f       	mov	r16, r24
     528:	16 2f       	mov	r17, r22
     52a:	94 2f       	mov	r25, r20
     52c:	79 01       	movw	r14, r18
	byte width = x1-x0+1;
	SetAddrWindow(x0,y,x1,y);
     52e:	64 2f       	mov	r22, r20
     530:	41 2f       	mov	r20, r17
     532:	29 2f       	mov	r18, r25
     534:	0e 94 3d 02 	call	0x47a	; 0x47a <SetAddrWindow>
	Write565(color,width);
     538:	10 1b       	sub	r17, r16
     53a:	1f 5f       	subi	r17, 0xFF	; 255
     53c:	c7 01       	movw	r24, r14
     53e:	61 2f       	mov	r22, r17
     540:	70 e0       	ldi	r23, 0x00	; 0
     542:	0e 94 ee 01 	call	0x3dc	; 0x3dc <Write565>
}
     546:	1f 91       	pop	r17
     548:	0f 91       	pop	r16
     54a:	ff 90       	pop	r15
     54c:	ef 90       	pop	r14
     54e:	08 95       	ret

00000550 <VLine>:
void VLine (byte x, byte y0, byte y1, int color)
// draws a vertical line in given color
{
     550:	ef 92       	push	r14
     552:	ff 92       	push	r15
     554:	0f 93       	push	r16
     556:	1f 93       	push	r17
     558:	98 2f       	mov	r25, r24
     55a:	06 2f       	mov	r16, r22
     55c:	14 2f       	mov	r17, r20
     55e:	79 01       	movw	r14, r18
	byte height = y1-y0+1;
	SetAddrWindow(x,y0,x,y1);
     560:	49 2f       	mov	r20, r25
     562:	21 2f       	mov	r18, r17
     564:	0e 94 3d 02 	call	0x47a	; 0x47a <SetAddrWindow>
	Write565(color,height);
     568:	10 1b       	sub	r17, r16
     56a:	1f 5f       	subi	r17, 0xFF	; 255
     56c:	c7 01       	movw	r24, r14
     56e:	61 2f       	mov	r22, r17
     570:	70 e0       	ldi	r23, 0x00	; 0
     572:	0e 94 ee 01 	call	0x3dc	; 0x3dc <Write565>
}
     576:	1f 91       	pop	r17
     578:	0f 91       	pop	r16
     57a:	ff 90       	pop	r15
     57c:	ef 90       	pop	r14
     57e:	08 95       	ret

00000580 <Line>:
void Line (int x0, int y0, int x1, int y1, int color)
// an elegant implementation of the Bresenham algorithm 
{
     580:	2f 92       	push	r2
     582:	3f 92       	push	r3
     584:	4f 92       	push	r4
     586:	5f 92       	push	r5
     588:	6f 92       	push	r6
     58a:	7f 92       	push	r7
     58c:	8f 92       	push	r8
     58e:	9f 92       	push	r9
     590:	af 92       	push	r10
     592:	bf 92       	push	r11
     594:	cf 92       	push	r12
     596:	df 92       	push	r13
     598:	ef 92       	push	r14
     59a:	ff 92       	push	r15
     59c:	0f 93       	push	r16
     59e:	1f 93       	push	r17
     5a0:	df 93       	push	r29
     5a2:	cf 93       	push	r28
     5a4:	00 d0       	rcall	.+0      	; 0x5a6 <Line+0x26>
     5a6:	00 d0       	rcall	.+0      	; 0x5a8 <Line+0x28>
     5a8:	00 d0       	rcall	.+0      	; 0x5aa <Line+0x2a>
     5aa:	cd b7       	in	r28, 0x3d	; 61
     5ac:	de b7       	in	r29, 0x3e	; 62
     5ae:	5c 01       	movw	r10, r24
     5b0:	6b 01       	movw	r12, r22
     5b2:	3a 01       	movw	r6, r20
     5b4:	49 01       	movw	r8, r18
     5b6:	1c 83       	std	Y+4, r17	; 0x04
     5b8:	0b 83       	std	Y+3, r16	; 0x03
	int dx = abs(x1-x0), sx = x0<x1 ? 1 : -1;
     5ba:	7a 01       	movw	r14, r20
     5bc:	e8 1a       	sub	r14, r24
     5be:	f9 0a       	sbc	r15, r25
     5c0:	f7 fe       	sbrs	r15, 7
     5c2:	04 c0       	rjmp	.+8      	; 0x5cc <Line+0x4c>
     5c4:	f0 94       	com	r15
     5c6:	e1 94       	neg	r14
     5c8:	f1 08       	sbc	r15, r1
     5ca:	f3 94       	inc	r15
     5cc:	a6 14       	cp	r10, r6
     5ce:	b7 04       	cpc	r11, r7
     5d0:	2c f0       	brlt	.+10     	; 0x5dc <Line+0x5c>
     5d2:	2f ef       	ldi	r18, 0xFF	; 255
     5d4:	3f ef       	ldi	r19, 0xFF	; 255
     5d6:	3a 83       	std	Y+2, r19	; 0x02
     5d8:	29 83       	std	Y+1, r18	; 0x01
     5da:	04 c0       	rjmp	.+8      	; 0x5e4 <Line+0x64>
     5dc:	81 e0       	ldi	r24, 0x01	; 1
     5de:	90 e0       	ldi	r25, 0x00	; 0
     5e0:	9a 83       	std	Y+2, r25	; 0x02
     5e2:	89 83       	std	Y+1, r24	; 0x01
	int dy = abs(y1-y0), sy = y0<y1 ? 1 : -1;
     5e4:	84 01       	movw	r16, r8
     5e6:	0c 19       	sub	r16, r12
     5e8:	1d 09       	sbc	r17, r13
     5ea:	17 ff       	sbrs	r17, 7
     5ec:	03 c0       	rjmp	.+6      	; 0x5f4 <Line+0x74>
     5ee:	10 95       	com	r17
     5f0:	01 95       	neg	r16
     5f2:	1f 4f       	sbci	r17, 0xFF	; 255
     5f4:	c8 14       	cp	r12, r8
     5f6:	d9 04       	cpc	r13, r9
     5f8:	24 f0       	brlt	.+8      	; 0x602 <Line+0x82>
     5fa:	22 24       	eor	r2, r2
     5fc:	2a 94       	dec	r2
     5fe:	32 2c       	mov	r3, r2
     600:	03 c0       	rjmp	.+6      	; 0x608 <Line+0x88>
     602:	91 e0       	ldi	r25, 0x01	; 1
     604:	29 2e       	mov	r2, r25
     606:	31 2c       	mov	r3, r1
	int err = (dx>dy ? dx : -dy)/2, e2;
     608:	0e 15       	cp	r16, r14
     60a:	1f 05       	cpc	r17, r15
     60c:	34 f4       	brge	.+12     	; 0x61a <Line+0x9a>
     60e:	f7 01       	movw	r30, r14
     610:	f5 95       	asr	r31
     612:	e7 95       	ror	r30
     614:	fe 83       	std	Y+6, r31	; 0x06
     616:	ed 83       	std	Y+5, r30	; 0x05
     618:	0f c0       	rjmp	.+30     	; 0x638 <Line+0xb8>
     61a:	c8 01       	movw	r24, r16
     61c:	62 e0       	ldi	r22, 0x02	; 2
     61e:	70 e0       	ldi	r23, 0x00	; 0
     620:	0e 94 3b 13 	call	0x2676	; 0x2676 <__divmodhi4>
     624:	22 27       	eor	r18, r18
     626:	33 27       	eor	r19, r19
     628:	26 1b       	sub	r18, r22
     62a:	37 0b       	sbc	r19, r23
     62c:	3e 83       	std	Y+6, r19	; 0x06
     62e:	2d 83       	std	Y+5, r18	; 0x05
     630:	03 c0       	rjmp	.+6      	; 0x638 <Line+0xb8>
     632:	9e 83       	std	Y+6, r25	; 0x06
     634:	8d 83       	std	Y+5, r24	; 0x05
     636:	04 c0       	rjmp	.+8      	; 0x640 <Line+0xc0>
	for(;;) 
	{
		DrawPixel(x0,y0,color);
		if (x0==x1 && y0==y1) break;
		e2 = err;
		if (e2 >-dx) { err -= dy; x0 += sx; }
     638:	44 24       	eor	r4, r4
     63a:	55 24       	eor	r5, r5
     63c:	4e 18       	sub	r4, r14
     63e:	5f 08       	sbc	r5, r15
	int dx = abs(x1-x0), sx = x0<x1 ? 1 : -1;
	int dy = abs(y1-y0), sy = y0<y1 ? 1 : -1;
	int err = (dx>dy ? dx : -dy)/2, e2;
	for(;;) 
	{
		DrawPixel(x0,y0,color);
     640:	8a 2d       	mov	r24, r10
     642:	6c 2d       	mov	r22, r12
     644:	4b 81       	ldd	r20, Y+3	; 0x03
     646:	5c 81       	ldd	r21, Y+4	; 0x04
     648:	0e 94 7f 02 	call	0x4fe	; 0x4fe <DrawPixel>
		if (x0==x1 && y0==y1) break;
     64c:	a6 14       	cp	r10, r6
     64e:	b7 04       	cpc	r11, r7
     650:	19 f4       	brne	.+6      	; 0x658 <Line+0xd8>
     652:	c8 14       	cp	r12, r8
     654:	d9 04       	cpc	r13, r9
     656:	b9 f0       	breq	.+46     	; 0x686 <Line+0x106>
		e2 = err;
		if (e2 >-dx) { err -= dy; x0 += sx; }
     658:	8d 81       	ldd	r24, Y+5	; 0x05
     65a:	9e 81       	ldd	r25, Y+6	; 0x06
     65c:	48 16       	cp	r4, r24
     65e:	59 06       	cpc	r5, r25
     660:	44 f4       	brge	.+16     	; 0x672 <Line+0xf2>
     662:	8d 81       	ldd	r24, Y+5	; 0x05
     664:	9e 81       	ldd	r25, Y+6	; 0x06
     666:	80 1b       	sub	r24, r16
     668:	91 0b       	sbc	r25, r17
     66a:	e9 81       	ldd	r30, Y+1	; 0x01
     66c:	fa 81       	ldd	r31, Y+2	; 0x02
     66e:	ae 0e       	add	r10, r30
     670:	bf 1e       	adc	r11, r31
		if (e2 < dy) { err += dx; y0 += sy; }
     672:	2d 81       	ldd	r18, Y+5	; 0x05
     674:	3e 81       	ldd	r19, Y+6	; 0x06
     676:	20 17       	cp	r18, r16
     678:	31 07       	cpc	r19, r17
     67a:	dc f6       	brge	.-74     	; 0x632 <Line+0xb2>
     67c:	8e 0d       	add	r24, r14
     67e:	9f 1d       	adc	r25, r15
     680:	c2 0c       	add	r12, r2
     682:	d3 1c       	adc	r13, r3
     684:	d6 cf       	rjmp	.-84     	; 0x632 <Line+0xb2>
	}
}
     686:	26 96       	adiw	r28, 0x06	; 6
     688:	0f b6       	in	r0, 0x3f	; 63
     68a:	f8 94       	cli
     68c:	de bf       	out	0x3e, r29	; 62
     68e:	0f be       	out	0x3f, r0	; 63
     690:	cd bf       	out	0x3d, r28	; 61
     692:	cf 91       	pop	r28
     694:	df 91       	pop	r29
     696:	1f 91       	pop	r17
     698:	0f 91       	pop	r16
     69a:	ff 90       	pop	r15
     69c:	ef 90       	pop	r14
     69e:	df 90       	pop	r13
     6a0:	cf 90       	pop	r12
     6a2:	bf 90       	pop	r11
     6a4:	af 90       	pop	r10
     6a6:	9f 90       	pop	r9
     6a8:	8f 90       	pop	r8
     6aa:	7f 90       	pop	r7
     6ac:	6f 90       	pop	r6
     6ae:	5f 90       	pop	r5
     6b0:	4f 90       	pop	r4
     6b2:	3f 90       	pop	r3
     6b4:	2f 90       	pop	r2
     6b6:	08 95       	ret

000006b8 <DrawRect>:
void DrawRect (byte x0, byte y0, byte x1, byte y1, int color)
// draws a rectangle in given color
{
     6b8:	cf 92       	push	r12
     6ba:	df 92       	push	r13
     6bc:	ef 92       	push	r14
     6be:	ff 92       	push	r15
     6c0:	0f 93       	push	r16
     6c2:	1f 93       	push	r17
     6c4:	f8 2e       	mov	r15, r24
     6c6:	c6 2e       	mov	r12, r22
     6c8:	e4 2e       	mov	r14, r20
     6ca:	d2 2e       	mov	r13, r18
	HLine(x0,x1,y0,color);
     6cc:	64 2f       	mov	r22, r20
     6ce:	4c 2d       	mov	r20, r12
     6d0:	98 01       	movw	r18, r16
     6d2:	0e 94 8f 02 	call	0x51e	; 0x51e <HLine>
	HLine(x0,x1,y1,color);
     6d6:	8f 2d       	mov	r24, r15
     6d8:	6e 2d       	mov	r22, r14
     6da:	4d 2d       	mov	r20, r13
     6dc:	98 01       	movw	r18, r16
     6de:	0e 94 8f 02 	call	0x51e	; 0x51e <HLine>
	VLine(x0,y0,y1,color);
     6e2:	8f 2d       	mov	r24, r15
     6e4:	6c 2d       	mov	r22, r12
     6e6:	4d 2d       	mov	r20, r13
     6e8:	98 01       	movw	r18, r16
     6ea:	0e 94 a8 02 	call	0x550	; 0x550 <VLine>
	VLine(x1,y0,y1,color);
     6ee:	8e 2d       	mov	r24, r14
     6f0:	6c 2d       	mov	r22, r12
     6f2:	4d 2d       	mov	r20, r13
     6f4:	98 01       	movw	r18, r16
     6f6:	0e 94 a8 02 	call	0x550	; 0x550 <VLine>
}
     6fa:	1f 91       	pop	r17
     6fc:	0f 91       	pop	r16
     6fe:	ff 90       	pop	r15
     700:	ef 90       	pop	r14
     702:	df 90       	pop	r13
     704:	cf 90       	pop	r12
     706:	08 95       	ret

00000708 <FillRect>:
void FillRect (byte x0, byte y0, byte x1, byte y1, int color) //filled rectangular
{
     708:	cf 92       	push	r12
     70a:	df 92       	push	r13
     70c:	ef 92       	push	r14
     70e:	ff 92       	push	r15
     710:	0f 93       	push	r16
     712:	1f 93       	push	r17
     714:	c8 2e       	mov	r12, r24
     716:	e6 2e       	mov	r14, r22
     718:	d4 2e       	mov	r13, r20
     71a:	f2 2e       	mov	r15, r18
	byte width = x1-x0+1;
	byte height = y1-y0+1;
	SetAddrWindow(x0,y0,x1,y1);
     71c:	0e 94 3d 02 	call	0x47a	; 0x47a <SetAddrWindow>
	Write565(color,width*height);
     720:	81 e0       	ldi	r24, 0x01	; 1
     722:	68 2f       	mov	r22, r24
     724:	6e 19       	sub	r22, r14
     726:	6f 0d       	add	r22, r15
     728:	8c 19       	sub	r24, r12
     72a:	8d 0d       	add	r24, r13
     72c:	68 9f       	mul	r22, r24
     72e:	b0 01       	movw	r22, r0
     730:	11 24       	eor	r1, r1
     732:	c8 01       	movw	r24, r16
     734:	0e 94 ee 01 	call	0x3dc	; 0x3dc <Write565>
}
     738:	1f 91       	pop	r17
     73a:	0f 91       	pop	r16
     73c:	ff 90       	pop	r15
     73e:	ef 90       	pop	r14
     740:	df 90       	pop	r13
     742:	cf 90       	pop	r12
     744:	08 95       	ret

00000746 <CircleQuadrant>:
// Remember that the y axis on our display is 'upside down':
// bit 0: draw quadrant I (lower right)
// bit 1: draw quadrant IV (upper right)
// bit 2: draw quadrant II (lower left)
// bit 3: draw quadrant III (upper left)
{
     746:	2f 92       	push	r2
     748:	3f 92       	push	r3
     74a:	4f 92       	push	r4
     74c:	5f 92       	push	r5
     74e:	7f 92       	push	r7
     750:	8f 92       	push	r8
     752:	9f 92       	push	r9
     754:	af 92       	push	r10
     756:	bf 92       	push	r11
     758:	cf 92       	push	r12
     75a:	df 92       	push	r13
     75c:	ef 92       	push	r14
     75e:	ff 92       	push	r15
     760:	0f 93       	push	r16
     762:	1f 93       	push	r17
     764:	df 93       	push	r29
     766:	cf 93       	push	r28
     768:	cd b7       	in	r28, 0x3d	; 61
     76a:	de b7       	in	r29, 0x3e	; 62
     76c:	28 97       	sbiw	r28, 0x08	; 8
     76e:	0f b6       	in	r0, 0x3f	; 63
     770:	f8 94       	cli
     772:	de bf       	out	0x3e, r29	; 62
     774:	0f be       	out	0x3f, r0	; 63
     776:	cd bf       	out	0x3d, r28	; 61
     778:	b8 2e       	mov	r11, r24
     77a:	e6 2e       	mov	r14, r22
     77c:	e4 2f       	mov	r30, r20
	int x, xEnd = (707*radius)/1000 + 1;
     77e:	f0 e0       	ldi	r31, 0x00	; 0
     780:	83 ec       	ldi	r24, 0xC3	; 195
     782:	92 e0       	ldi	r25, 0x02	; 2
     784:	ac 01       	movw	r20, r24
     786:	e4 9f       	mul	r30, r20
     788:	c0 01       	movw	r24, r0
     78a:	e5 9f       	mul	r30, r21
     78c:	90 0d       	add	r25, r0
     78e:	f4 9f       	mul	r31, r20
     790:	90 0d       	add	r25, r0
     792:	11 24       	eor	r1, r1
     794:	68 ee       	ldi	r22, 0xE8	; 232
     796:	73 e0       	ldi	r23, 0x03	; 3
     798:	0e 94 3b 13 	call	0x2676	; 0x2676 <__divmodhi4>
     79c:	6b 01       	movw	r12, r22
	for (x=0; x<xEnd; x++)
	{
		byte y = intsqrt(radius*radius - x*x);
     79e:	ee 9f       	mul	r30, r30
     7a0:	c0 01       	movw	r24, r0
     7a2:	ef 9f       	mul	r30, r31
     7a4:	90 0d       	add	r25, r0
     7a6:	fe 9f       	mul	r31, r30
     7a8:	90 0d       	add	r25, r0
     7aa:	11 24       	eor	r1, r1
     7ac:	9a 83       	std	Y+2, r25	; 0x02
     7ae:	89 83       	std	Y+1, r24	; 0x01
     7b0:	7b 2c       	mov	r7, r11
     7b2:	8e 2c       	mov	r8, r14
     7b4:	9e 2c       	mov	r9, r14
     7b6:	ab 2c       	mov	r10, r11
     7b8:	18 86       	std	Y+8, r1	; 0x08
     7ba:	1f 82       	std	Y+7, r1	; 0x07
		if (quad & 0x01)
     7bc:	30 e0       	ldi	r19, 0x00	; 0
     7be:	d9 01       	movw	r26, r18
     7c0:	a1 70       	andi	r26, 0x01	; 1
     7c2:	b0 70       	andi	r27, 0x00	; 0
     7c4:	bc 83       	std	Y+4, r27	; 0x04
     7c6:	ab 83       	std	Y+3, r26	; 0x03
		{
			DrawPixel(xPos+x,yPos+y,color);  // lower right
			DrawPixel(xPos+y,yPos+x,color);
		}
		if (quad & 0x02)
     7c8:	f9 01       	movw	r30, r18
     7ca:	e2 70       	andi	r30, 0x02	; 2
     7cc:	f0 70       	andi	r31, 0x00	; 0
     7ce:	fe 83       	std	Y+6, r31	; 0x06
     7d0:	ed 83       	std	Y+5, r30	; 0x05
		{
			DrawPixel(xPos+x,yPos-y,color);  // upper right
			DrawPixel(xPos+y,yPos-x,color);
		}
		if (quad & 0x04)
     7d2:	54 e0       	ldi	r21, 0x04	; 4
     7d4:	25 2e       	mov	r2, r21
     7d6:	31 2c       	mov	r3, r1
     7d8:	22 22       	and	r2, r18
     7da:	33 22       	and	r3, r19
		{
			DrawPixel(xPos-x,yPos+y,color);  // lower left
			DrawPixel(xPos-y,yPos+x,color);
		}
		if (quad & 0x08)
     7dc:	48 e0       	ldi	r20, 0x08	; 8
     7de:	44 2e       	mov	r4, r20
     7e0:	51 2c       	mov	r5, r1
     7e2:	42 22       	and	r4, r18
     7e4:	53 22       	and	r5, r19
     7e6:	5b c0       	rjmp	.+182    	; 0x89e <CircleQuadrant+0x158>
// bit 1: draw quadrant IV (upper right)
// bit 2: draw quadrant II (lower left)
// bit 3: draw quadrant III (upper left)
{
	int x, xEnd = (707*radius)/1000 + 1;
	for (x=0; x<xEnd; x++)
     7e8:	2f 81       	ldd	r18, Y+7	; 0x07
     7ea:	38 85       	ldd	r19, Y+8	; 0x08
     7ec:	22 9f       	mul	r18, r18
     7ee:	c0 01       	movw	r24, r0
     7f0:	23 9f       	mul	r18, r19
     7f2:	90 0d       	add	r25, r0
     7f4:	32 9f       	mul	r19, r18
     7f6:	90 0d       	add	r25, r0
     7f8:	11 24       	eor	r1, r1
     7fa:	69 81       	ldd	r22, Y+1	; 0x01
     7fc:	7a 81       	ldd	r23, Y+2	; 0x02
     7fe:	68 1b       	sub	r22, r24
     800:	79 0b       	sbc	r23, r25
     802:	88 27       	eor	r24, r24
     804:	77 fd       	sbrc	r23, 7
     806:	80 95       	com	r24
     808:	98 2f       	mov	r25, r24
     80a:	0e 94 56 01 	call	0x2ac	; 0x2ac <intsqrt>
     80e:	f6 2e       	mov	r15, r22
	{
		byte y = intsqrt(radius*radius - x*x);
		if (quad & 0x01)
     810:	4b 81       	ldd	r20, Y+3	; 0x03
     812:	5c 81       	ldd	r21, Y+4	; 0x04
     814:	45 2b       	or	r20, r21
     816:	61 f0       	breq	.+24     	; 0x830 <CircleQuadrant+0xea>
		{
			DrawPixel(xPos+x,yPos+y,color);  // lower right
     818:	6e 2d       	mov	r22, r14
     81a:	6f 0d       	add	r22, r15
     81c:	8a 2d       	mov	r24, r10
     81e:	a8 01       	movw	r20, r16
     820:	0e 94 7f 02 	call	0x4fe	; 0x4fe <DrawPixel>
			DrawPixel(xPos+y,yPos+x,color);
     824:	8b 2d       	mov	r24, r11
     826:	8f 0d       	add	r24, r15
     828:	69 2d       	mov	r22, r9
     82a:	a8 01       	movw	r20, r16
     82c:	0e 94 7f 02 	call	0x4fe	; 0x4fe <DrawPixel>
		}
		if (quad & 0x02)
     830:	8d 81       	ldd	r24, Y+5	; 0x05
     832:	9e 81       	ldd	r25, Y+6	; 0x06
     834:	89 2b       	or	r24, r25
     836:	61 f0       	breq	.+24     	; 0x850 <CircleQuadrant+0x10a>
		{
			DrawPixel(xPos+x,yPos-y,color);  // upper right
     838:	6e 2d       	mov	r22, r14
     83a:	6f 19       	sub	r22, r15
     83c:	8a 2d       	mov	r24, r10
     83e:	a8 01       	movw	r20, r16
     840:	0e 94 7f 02 	call	0x4fe	; 0x4fe <DrawPixel>
			DrawPixel(xPos+y,yPos-x,color);
     844:	8b 2d       	mov	r24, r11
     846:	8f 0d       	add	r24, r15
     848:	68 2d       	mov	r22, r8
     84a:	a8 01       	movw	r20, r16
     84c:	0e 94 7f 02 	call	0x4fe	; 0x4fe <DrawPixel>
		}
		if (quad & 0x04)
     850:	21 14       	cp	r2, r1
     852:	31 04       	cpc	r3, r1
     854:	61 f0       	breq	.+24     	; 0x86e <CircleQuadrant+0x128>
		{
			DrawPixel(xPos-x,yPos+y,color);  // lower left
     856:	6e 2d       	mov	r22, r14
     858:	6f 0d       	add	r22, r15
     85a:	87 2d       	mov	r24, r7
     85c:	a8 01       	movw	r20, r16
     85e:	0e 94 7f 02 	call	0x4fe	; 0x4fe <DrawPixel>
			DrawPixel(xPos-y,yPos+x,color);
     862:	8b 2d       	mov	r24, r11
     864:	8f 19       	sub	r24, r15
     866:	69 2d       	mov	r22, r9
     868:	a8 01       	movw	r20, r16
     86a:	0e 94 7f 02 	call	0x4fe	; 0x4fe <DrawPixel>
		}
		if (quad & 0x08)
     86e:	41 14       	cp	r4, r1
     870:	51 04       	cpc	r5, r1
     872:	61 f0       	breq	.+24     	; 0x88c <CircleQuadrant+0x146>
		{
			DrawPixel(xPos-x,yPos-y,color);  // upper left
     874:	6e 2d       	mov	r22, r14
     876:	6f 19       	sub	r22, r15
     878:	87 2d       	mov	r24, r7
     87a:	a8 01       	movw	r20, r16
     87c:	0e 94 7f 02 	call	0x4fe	; 0x4fe <DrawPixel>
			DrawPixel(xPos-y,yPos-x,color);
     880:	8b 2d       	mov	r24, r11
     882:	8f 19       	sub	r24, r15
     884:	68 2d       	mov	r22, r8
     886:	a8 01       	movw	r20, r16
     888:	0e 94 7f 02 	call	0x4fe	; 0x4fe <DrawPixel>
// bit 1: draw quadrant IV (upper right)
// bit 2: draw quadrant II (lower left)
// bit 3: draw quadrant III (upper left)
{
	int x, xEnd = (707*radius)/1000 + 1;
	for (x=0; x<xEnd; x++)
     88c:	af 81       	ldd	r26, Y+7	; 0x07
     88e:	b8 85       	ldd	r27, Y+8	; 0x08
     890:	11 96       	adiw	r26, 0x01	; 1
     892:	b8 87       	std	Y+8, r27	; 0x08
     894:	af 83       	std	Y+7, r26	; 0x07
     896:	7a 94       	dec	r7
     898:	8a 94       	dec	r8
     89a:	93 94       	inc	r9
     89c:	a3 94       	inc	r10
     89e:	ef 81       	ldd	r30, Y+7	; 0x07
     8a0:	f8 85       	ldd	r31, Y+8	; 0x08
     8a2:	ce 16       	cp	r12, r30
     8a4:	df 06       	cpc	r13, r31
     8a6:	0c f0       	brlt	.+2      	; 0x8aa <CircleQuadrant+0x164>
     8a8:	9f cf       	rjmp	.-194    	; 0x7e8 <CircleQuadrant+0xa2>
		{
			DrawPixel(xPos-x,yPos-y,color);  // upper left
			DrawPixel(xPos-y,yPos-x,color);
		}
	}
}
     8aa:	28 96       	adiw	r28, 0x08	; 8
     8ac:	0f b6       	in	r0, 0x3f	; 63
     8ae:	f8 94       	cli
     8b0:	de bf       	out	0x3e, r29	; 62
     8b2:	0f be       	out	0x3f, r0	; 63
     8b4:	cd bf       	out	0x3d, r28	; 61
     8b6:	cf 91       	pop	r28
     8b8:	df 91       	pop	r29
     8ba:	1f 91       	pop	r17
     8bc:	0f 91       	pop	r16
     8be:	ff 90       	pop	r15
     8c0:	ef 90       	pop	r14
     8c2:	df 90       	pop	r13
     8c4:	cf 90       	pop	r12
     8c6:	bf 90       	pop	r11
     8c8:	af 90       	pop	r10
     8ca:	9f 90       	pop	r9
     8cc:	8f 90       	pop	r8
     8ce:	7f 90       	pop	r7
     8d0:	5f 90       	pop	r5
     8d2:	4f 90       	pop	r4
     8d4:	3f 90       	pop	r3
     8d6:	2f 90       	pop	r2
     8d8:	08 95       	ret

000008da <Circle>:
void Circle (byte xPos, byte yPos, byte radius, int color)
// draws circle at x,y with given radius & color
{
     8da:	0f 93       	push	r16
     8dc:	1f 93       	push	r17
     8de:	89 01       	movw	r16, r18
	CircleQuadrant(xPos,yPos,radius,0x0F,color); // do all 4 quadrants
     8e0:	2f e0       	ldi	r18, 0x0F	; 15
     8e2:	0e 94 a3 03 	call	0x746	; 0x746 <CircleQuadrant>
}
     8e6:	1f 91       	pop	r17
     8e8:	0f 91       	pop	r16
     8ea:	08 95       	ret

000008ec <RoundRect>:
void RoundRect (byte x0, byte y0, byte x1, byte y1, byte r, int color)
// draws a rounded rectangle with corner radius r.
// coordinates: top left = x0,y0; bottom right = x1,y1 
{
     8ec:	7f 92       	push	r7
     8ee:	8f 92       	push	r8
     8f0:	9f 92       	push	r9
     8f2:	af 92       	push	r10
     8f4:	bf 92       	push	r11
     8f6:	cf 92       	push	r12
     8f8:	df 92       	push	r13
     8fa:	ef 92       	push	r14
     8fc:	ff 92       	push	r15
     8fe:	0f 93       	push	r16
     900:	1f 93       	push	r17
     902:	88 2e       	mov	r8, r24
     904:	16 2f       	mov	r17, r22
     906:	74 2e       	mov	r7, r20
     908:	b2 2e       	mov	r11, r18
     90a:	d0 2e       	mov	r13, r16
	HLine(x0+r,x1-r,y0,color);  // top side
     90c:	a0 2e       	mov	r10, r16
     90e:	a8 0e       	add	r10, r24
     910:	94 2e       	mov	r9, r20
     912:	90 1a       	sub	r9, r16
     914:	8a 2d       	mov	r24, r10
     916:	69 2d       	mov	r22, r9
     918:	41 2f       	mov	r20, r17
     91a:	97 01       	movw	r18, r14
     91c:	0e 94 8f 02 	call	0x51e	; 0x51e <HLine>
	HLine(x0+r,x1-r,y1,color);  // bottom side
     920:	8a 2d       	mov	r24, r10
     922:	69 2d       	mov	r22, r9
     924:	4b 2d       	mov	r20, r11
     926:	97 01       	movw	r18, r14
     928:	0e 94 8f 02 	call	0x51e	; 0x51e <HLine>
	VLine(x0,y0+r,y1-r,color);  // left side
     92c:	c0 2e       	mov	r12, r16
     92e:	c1 0e       	add	r12, r17
     930:	b0 1a       	sub	r11, r16
     932:	88 2d       	mov	r24, r8
     934:	6c 2d       	mov	r22, r12
     936:	4b 2d       	mov	r20, r11
     938:	97 01       	movw	r18, r14
     93a:	0e 94 a8 02 	call	0x550	; 0x550 <VLine>
	VLine(x1,y0+r,y1-r,color);  // right side
     93e:	87 2d       	mov	r24, r7
     940:	6c 2d       	mov	r22, r12
     942:	4b 2d       	mov	r20, r11
     944:	97 01       	movw	r18, r14
     946:	0e 94 a8 02 	call	0x550	; 0x550 <VLine>
	CircleQuadrant(x0+r,y0+r,r,8,color);  // upper left corner
     94a:	8a 2d       	mov	r24, r10
     94c:	6c 2d       	mov	r22, r12
     94e:	40 2f       	mov	r20, r16
     950:	28 e0       	ldi	r18, 0x08	; 8
     952:	87 01       	movw	r16, r14
     954:	0e 94 a3 03 	call	0x746	; 0x746 <CircleQuadrant>
	CircleQuadrant(x1-r,y0+r,r,2,color);  // upper right corner
     958:	89 2d       	mov	r24, r9
     95a:	6c 2d       	mov	r22, r12
     95c:	4d 2d       	mov	r20, r13
     95e:	22 e0       	ldi	r18, 0x02	; 2
     960:	0e 94 a3 03 	call	0x746	; 0x746 <CircleQuadrant>
	CircleQuadrant(x0+r,y1-r,r,4,color);  // lower left corner
     964:	8a 2d       	mov	r24, r10
     966:	6b 2d       	mov	r22, r11
     968:	4d 2d       	mov	r20, r13
     96a:	24 e0       	ldi	r18, 0x04	; 4
     96c:	0e 94 a3 03 	call	0x746	; 0x746 <CircleQuadrant>
	CircleQuadrant(x1-r,y1-r,r,1,color);  // lower right corner
     970:	89 2d       	mov	r24, r9
     972:	6b 2d       	mov	r22, r11
     974:	4d 2d       	mov	r20, r13
     976:	21 e0       	ldi	r18, 0x01	; 1
     978:	0e 94 a3 03 	call	0x746	; 0x746 <CircleQuadrant>
}
     97c:	1f 91       	pop	r17
     97e:	0f 91       	pop	r16
     980:	ff 90       	pop	r15
     982:	ef 90       	pop	r14
     984:	df 90       	pop	r13
     986:	cf 90       	pop	r12
     988:	bf 90       	pop	r11
     98a:	af 90       	pop	r10
     98c:	9f 90       	pop	r9
     98e:	8f 90       	pop	r8
     990:	7f 90       	pop	r7
     992:	08 95       	ret

00000994 <FillCircle>:
void FillCircle (byte xPos, byte yPos, byte radius, int color)
// draws filled circle at x,y with given radius & color
{
     994:	5f 92       	push	r5
     996:	6f 92       	push	r6
     998:	7f 92       	push	r7
     99a:	8f 92       	push	r8
     99c:	9f 92       	push	r9
     99e:	af 92       	push	r10
     9a0:	bf 92       	push	r11
     9a2:	cf 92       	push	r12
     9a4:	df 92       	push	r13
     9a6:	ef 92       	push	r14
     9a8:	ff 92       	push	r15
     9aa:	0f 93       	push	r16
     9ac:	1f 93       	push	r17
     9ae:	cf 93       	push	r28
     9b0:	df 93       	push	r29
     9b2:	58 2e       	mov	r5, r24
     9b4:	e6 2e       	mov	r14, r22
     9b6:	39 01       	movw	r6, r18
	long r2 = radius * radius;
     9b8:	c4 2e       	mov	r12, r20
     9ba:	dd 24       	eor	r13, r13
     9bc:	cc 9c       	mul	r12, r12
     9be:	c0 01       	movw	r24, r0
     9c0:	cd 9c       	mul	r12, r13
     9c2:	90 0d       	add	r25, r0
     9c4:	dc 9c       	mul	r13, r12
     9c6:	90 0d       	add	r25, r0
     9c8:	11 24       	eor	r1, r1
     9ca:	4c 01       	movw	r8, r24
     9cc:	aa 24       	eor	r10, r10
     9ce:	97 fc       	sbrc	r9, 7
     9d0:	a0 94       	com	r10
     9d2:	ba 2c       	mov	r11, r10
     9d4:	c0 e0       	ldi	r28, 0x00	; 0
     9d6:	d0 e0       	ldi	r29, 0x00	; 0
	for (int x=0; x<=radius; x++)
	{
		byte y = intsqrt(r2-x*x);
     9d8:	cc 9f       	mul	r28, r28
     9da:	c0 01       	movw	r24, r0
     9dc:	cd 9f       	mul	r28, r29
     9de:	90 0d       	add	r25, r0
     9e0:	dc 9f       	mul	r29, r28
     9e2:	90 0d       	add	r25, r0
     9e4:	11 24       	eor	r1, r1
     9e6:	aa 27       	eor	r26, r26
     9e8:	97 fd       	sbrc	r25, 7
     9ea:	a0 95       	com	r26
     9ec:	ba 2f       	mov	r27, r26
     9ee:	a5 01       	movw	r20, r10
     9f0:	94 01       	movw	r18, r8
     9f2:	28 1b       	sub	r18, r24
     9f4:	39 0b       	sbc	r19, r25
     9f6:	4a 0b       	sbc	r20, r26
     9f8:	5b 0b       	sbc	r21, r27
     9fa:	ca 01       	movw	r24, r20
     9fc:	b9 01       	movw	r22, r18
     9fe:	0e 94 56 01 	call	0x2ac	; 0x2ac <intsqrt>
		byte y0 = yPos-y;
     a02:	0e 2d       	mov	r16, r14
     a04:	06 1b       	sub	r16, r22
		byte y1 = yPos+y;
     a06:	fe 2c       	mov	r15, r14
     a08:	f6 0e       	add	r15, r22
		VLine(xPos+x,y0,y1,color);
     a0a:	8c 2f       	mov	r24, r28
     a0c:	85 0d       	add	r24, r5
     a0e:	60 2f       	mov	r22, r16
     a10:	4f 2d       	mov	r20, r15
     a12:	93 01       	movw	r18, r6
     a14:	0e 94 a8 02 	call	0x550	; 0x550 <VLine>
		VLine(xPos-x,y0,y1,color);
     a18:	85 2d       	mov	r24, r5
     a1a:	8c 1b       	sub	r24, r28
     a1c:	60 2f       	mov	r22, r16
     a1e:	4f 2d       	mov	r20, r15
     a20:	93 01       	movw	r18, r6
     a22:	0e 94 a8 02 	call	0x550	; 0x550 <VLine>
}
void FillCircle (byte xPos, byte yPos, byte radius, int color)
// draws filled circle at x,y with given radius & color
{
	long r2 = radius * radius;
	for (int x=0; x<=radius; x++)
     a26:	21 96       	adiw	r28, 0x01	; 1
     a28:	cc 16       	cp	r12, r28
     a2a:	dd 06       	cpc	r13, r29
     a2c:	ac f6       	brge	.-86     	; 0x9d8 <FillCircle+0x44>
		byte y0 = yPos-y;
		byte y1 = yPos+y;
		VLine(xPos+x,y0,y1,color);
		VLine(xPos-x,y0,y1,color);
	}
}
     a2e:	df 91       	pop	r29
     a30:	cf 91       	pop	r28
     a32:	1f 91       	pop	r17
     a34:	0f 91       	pop	r16
     a36:	ff 90       	pop	r15
     a38:	ef 90       	pop	r14
     a3a:	df 90       	pop	r13
     a3c:	cf 90       	pop	r12
     a3e:	bf 90       	pop	r11
     a40:	af 90       	pop	r10
     a42:	9f 90       	pop	r9
     a44:	8f 90       	pop	r8
     a46:	7f 90       	pop	r7
     a48:	6f 90       	pop	r6
     a4a:	5f 90       	pop	r5
     a4c:	08 95       	ret

00000a4e <Ellipse>:
void Ellipse (int x0, int y0, int width, int height, int color)
// draws an ellipse of given width & height
// two-part Bresenham method
// note: slight discontinuity between parts on some (narrow) ellipses.
{
     a4e:	2f 92       	push	r2
     a50:	3f 92       	push	r3
     a52:	4f 92       	push	r4
     a54:	5f 92       	push	r5
     a56:	6f 92       	push	r6
     a58:	7f 92       	push	r7
     a5a:	8f 92       	push	r8
     a5c:	9f 92       	push	r9
     a5e:	af 92       	push	r10
     a60:	bf 92       	push	r11
     a62:	cf 92       	push	r12
     a64:	df 92       	push	r13
     a66:	ef 92       	push	r14
     a68:	ff 92       	push	r15
     a6a:	0f 93       	push	r16
     a6c:	1f 93       	push	r17
     a6e:	df 93       	push	r29
     a70:	cf 93       	push	r28
     a72:	cd b7       	in	r28, 0x3d	; 61
     a74:	de b7       	in	r29, 0x3e	; 62
     a76:	6e 97       	sbiw	r28, 0x1e	; 30
     a78:	0f b6       	in	r0, 0x3f	; 63
     a7a:	f8 94       	cli
     a7c:	de bf       	out	0x3e, r29	; 62
     a7e:	0f be       	out	0x3f, r0	; 63
     a80:	cd bf       	out	0x3d, r28	; 61
     a82:	8b 8f       	std	Y+27, r24	; 0x1b
     a84:	6c 8f       	std	Y+28, r22	; 0x1c
     a86:	ca 01       	movw	r24, r20
     a88:	1a 8f       	std	Y+26, r17	; 0x1a
     a8a:	09 8f       	std	Y+25, r16	; 0x19
	int a=width/2, b=height/2;
     a8c:	62 e0       	ldi	r22, 0x02	; 2
     a8e:	70 e0       	ldi	r23, 0x00	; 0
     a90:	0e 94 3b 13 	call	0x2676	; 0x2676 <__divmodhi4>
     a94:	1b 01       	movw	r2, r22
     a96:	c9 01       	movw	r24, r18
     a98:	62 e0       	ldi	r22, 0x02	; 2
     a9a:	70 e0       	ldi	r23, 0x00	; 0
     a9c:	0e 94 3b 13 	call	0x2676	; 0x2676 <__divmodhi4>
     aa0:	6d 8f       	std	Y+29, r22	; 0x1d
     aa2:	7e 8f       	std	Y+30, r23	; 0x1e
	int x = 0, y = b;
	long a2 = (long)a*a*2;
     aa4:	91 01       	movw	r18, r2
     aa6:	44 27       	eor	r20, r20
     aa8:	37 fd       	sbrc	r19, 7
     aaa:	40 95       	com	r20
     aac:	54 2f       	mov	r21, r20
     aae:	2d 8b       	std	Y+21, r18	; 0x15
     ab0:	3e 8b       	std	Y+22, r19	; 0x16
     ab2:	4f 8b       	std	Y+23, r20	; 0x17
     ab4:	58 8f       	std	Y+24, r21	; 0x18
     ab6:	ca 01       	movw	r24, r20
     ab8:	b9 01       	movw	r22, r18
     aba:	0e 94 10 13 	call	0x2620	; 0x2620 <__mulsi3>
     abe:	5b 01       	movw	r10, r22
     ac0:	6c 01       	movw	r12, r24
     ac2:	dc 01       	movw	r26, r24
     ac4:	cb 01       	movw	r24, r22
     ac6:	88 0f       	add	r24, r24
     ac8:	99 1f       	adc	r25, r25
     aca:	aa 1f       	adc	r26, r26
     acc:	bb 1f       	adc	r27, r27
     ace:	8f 87       	std	Y+15, r24	; 0x0f
     ad0:	98 8b       	std	Y+16, r25	; 0x10
     ad2:	a9 8b       	std	Y+17, r26	; 0x11
     ad4:	ba 8b       	std	Y+18, r27	; 0x12
	long b2 = (long)b*b*2;
     ad6:	ad 8d       	ldd	r26, Y+29	; 0x1d
     ad8:	be 8d       	ldd	r27, Y+30	; 0x1e
     ada:	7d 01       	movw	r14, r26
     adc:	00 27       	eor	r16, r16
     ade:	f7 fc       	sbrc	r15, 7
     ae0:	00 95       	com	r16
     ae2:	10 2f       	mov	r17, r16
     ae4:	c8 01       	movw	r24, r16
     ae6:	b7 01       	movw	r22, r14
     ae8:	a8 01       	movw	r20, r16
     aea:	97 01       	movw	r18, r14
     aec:	0e 94 10 13 	call	0x2620	; 0x2620 <__mulsi3>
     af0:	9b 01       	movw	r18, r22
     af2:	ac 01       	movw	r20, r24
     af4:	22 0f       	add	r18, r18
     af6:	33 1f       	adc	r19, r19
     af8:	44 1f       	adc	r20, r20
     afa:	55 1f       	adc	r21, r21
     afc:	2b 87       	std	Y+11, r18	; 0x0b
     afe:	3c 87       	std	Y+12, r19	; 0x0c
     b00:	4d 87       	std	Y+13, r20	; 0x0d
     b02:	5e 87       	std	Y+14, r21	; 0x0e
	long error = (long)a*a*b;
     b04:	c8 01       	movw	r24, r16
     b06:	b7 01       	movw	r22, r14
     b08:	a6 01       	movw	r20, r12
     b0a:	95 01       	movw	r18, r10
     b0c:	0e 94 10 13 	call	0x2620	; 0x2620 <__mulsi3>
     b10:	2b 01       	movw	r4, r22
     b12:	3c 01       	movw	r6, r24
	long stopY=0, stopX = a2*b;
     b14:	6f 85       	ldd	r22, Y+15	; 0x0f
     b16:	78 89       	ldd	r23, Y+16	; 0x10
     b18:	89 89       	ldd	r24, Y+17	; 0x11
     b1a:	9a 89       	ldd	r25, Y+18	; 0x12
     b1c:	a8 01       	movw	r20, r16
     b1e:	97 01       	movw	r18, r14
     b20:	0e 94 10 13 	call	0x2620	; 0x2620 <__mulsi3>
     b24:	6f 83       	std	Y+7, r22	; 0x07
     b26:	78 87       	std	Y+8, r23	; 0x08
     b28:	89 87       	std	Y+9, r24	; 0x09
     b2a:	9a 87       	std	Y+10, r25	; 0x0a
     b2c:	4d 8d       	ldd	r20, Y+29	; 0x1d
     b2e:	5e 8d       	ldd	r21, Y+30	; 0x1e
     b30:	5a 83       	std	Y+2, r21	; 0x02
     b32:	49 83       	std	Y+1, r20	; 0x01
     b34:	1c 8a       	std	Y+20, r1	; 0x14
     b36:	1b 8a       	std	Y+19, r1	; 0x13
     b38:	88 24       	eor	r8, r8
     b3a:	99 24       	eor	r9, r9
     b3c:	54 01       	movw	r10, r8
     b3e:	56 c0       	rjmp	.+172    	; 0xbec <Ellipse+0x19e>
}
void Ellipse (int x0, int y0, int width, int height, int color)
// draws an ellipse of given width & height
// two-part Bresenham method
// note: slight discontinuity between parts on some (narrow) ellipses.
{
     b40:	db 88       	ldd	r13, Y+19	; 0x13
     b42:	0b 8d       	ldd	r16, Y+27	; 0x1b
     b44:	0d 0d       	add	r16, r13
	long b2 = (long)b*b*2;
	long error = (long)a*a*b;
	long stopY=0, stopX = a2*b;
	while (stopY <= stopX)
	{
		DrawPixel(x0+x,y0+y,color);
     b46:	19 81       	ldd	r17, Y+1	; 0x01
     b48:	ec 8c       	ldd	r14, Y+28	; 0x1c
     b4a:	e1 0e       	add	r14, r17
     b4c:	80 2f       	mov	r24, r16
     b4e:	6e 2d       	mov	r22, r14
     b50:	49 8d       	ldd	r20, Y+25	; 0x19
     b52:	5a 8d       	ldd	r21, Y+26	; 0x1a
     b54:	0e 94 7f 02 	call	0x4fe	; 0x4fe <DrawPixel>
		DrawPixel(x0+x,y0-y,color);
     b58:	fc 8c       	ldd	r15, Y+28	; 0x1c
     b5a:	f1 1a       	sub	r15, r17
     b5c:	80 2f       	mov	r24, r16
     b5e:	6f 2d       	mov	r22, r15
     b60:	49 8d       	ldd	r20, Y+25	; 0x19
     b62:	5a 8d       	ldd	r21, Y+26	; 0x1a
     b64:	0e 94 7f 02 	call	0x4fe	; 0x4fe <DrawPixel>
     b68:	1b 8d       	ldd	r17, Y+27	; 0x1b
     b6a:	1d 19       	sub	r17, r13
		DrawPixel(x0-x,y0+y,color);
     b6c:	81 2f       	mov	r24, r17
     b6e:	6e 2d       	mov	r22, r14
     b70:	49 8d       	ldd	r20, Y+25	; 0x19
     b72:	5a 8d       	ldd	r21, Y+26	; 0x1a
     b74:	0e 94 7f 02 	call	0x4fe	; 0x4fe <DrawPixel>
		DrawPixel(x0-x,y0-y,color);
     b78:	81 2f       	mov	r24, r17
     b7a:	6f 2d       	mov	r22, r15
     b7c:	49 8d       	ldd	r20, Y+25	; 0x19
     b7e:	5a 8d       	ldd	r21, Y+26	; 0x1a
     b80:	0e 94 7f 02 	call	0x4fe	; 0x4fe <DrawPixel>
		x++;
		error -= b2*(x-1);
     b84:	48 18       	sub	r4, r8
     b86:	59 08       	sbc	r5, r9
     b88:	6a 08       	sbc	r6, r10
     b8a:	7b 08       	sbc	r7, r11
		stopY += b2;
		if (error < 0)
     b8c:	77 fe       	sbrs	r7, 7
     b8e:	21 c0       	rjmp	.+66     	; 0xbd2 <Ellipse+0x184>
		{
			error += a2*(y-1);
     b90:	89 81       	ldd	r24, Y+1	; 0x01
     b92:	9a 81       	ldd	r25, Y+2	; 0x02
     b94:	01 97       	sbiw	r24, 0x01	; 1
     b96:	9a 83       	std	Y+2, r25	; 0x02
     b98:	89 83       	std	Y+1, r24	; 0x01
     b9a:	dc 01       	movw	r26, r24
     b9c:	bd 01       	movw	r22, r26
     b9e:	88 27       	eor	r24, r24
     ba0:	77 fd       	sbrc	r23, 7
     ba2:	80 95       	com	r24
     ba4:	98 2f       	mov	r25, r24
     ba6:	2f 85       	ldd	r18, Y+15	; 0x0f
     ba8:	38 89       	ldd	r19, Y+16	; 0x10
     baa:	49 89       	ldd	r20, Y+17	; 0x11
     bac:	5a 89       	ldd	r21, Y+18	; 0x12
     bae:	0e 94 10 13 	call	0x2620	; 0x2620 <__mulsi3>
     bb2:	46 0e       	add	r4, r22
     bb4:	57 1e       	adc	r5, r23
     bb6:	68 1e       	adc	r6, r24
     bb8:	79 1e       	adc	r7, r25
			y--;
			stopX -= a2;
     bba:	8f 81       	ldd	r24, Y+7	; 0x07
     bbc:	98 85       	ldd	r25, Y+8	; 0x08
     bbe:	a9 85       	ldd	r26, Y+9	; 0x09
     bc0:	ba 85       	ldd	r27, Y+10	; 0x0a
     bc2:	82 1b       	sub	r24, r18
     bc4:	93 0b       	sbc	r25, r19
     bc6:	a4 0b       	sbc	r26, r20
     bc8:	b5 0b       	sbc	r27, r21
     bca:	8f 83       	std	Y+7, r24	; 0x07
     bcc:	98 87       	std	Y+8, r25	; 0x08
     bce:	a9 87       	std	Y+9, r26	; 0x09
     bd0:	ba 87       	std	Y+10, r27	; 0x0a
	{
		DrawPixel(x0+x,y0+y,color);
		DrawPixel(x0+x,y0-y,color);
		DrawPixel(x0-x,y0+y,color);
		DrawPixel(x0-x,y0-y,color);
		x++;
     bd2:	ab 89       	ldd	r26, Y+19	; 0x13
     bd4:	bc 89       	ldd	r27, Y+20	; 0x14
     bd6:	11 96       	adiw	r26, 0x01	; 1
     bd8:	bc 8b       	std	Y+20, r27	; 0x14
     bda:	ab 8b       	std	Y+19, r26	; 0x13
}
void Ellipse (int x0, int y0, int width, int height, int color)
// draws an ellipse of given width & height
// two-part Bresenham method
// note: slight discontinuity between parts on some (narrow) ellipses.
{
     bdc:	2b 85       	ldd	r18, Y+11	; 0x0b
     bde:	3c 85       	ldd	r19, Y+12	; 0x0c
     be0:	4d 85       	ldd	r20, Y+13	; 0x0d
     be2:	5e 85       	ldd	r21, Y+14	; 0x0e
     be4:	82 0e       	add	r8, r18
     be6:	93 1e       	adc	r9, r19
     be8:	a4 1e       	adc	r10, r20
     bea:	b5 1e       	adc	r11, r21
	int x = 0, y = b;
	long a2 = (long)a*a*2;
	long b2 = (long)b*b*2;
	long error = (long)a*a*b;
	long stopY=0, stopX = a2*b;
	while (stopY <= stopX)
     bec:	8f 81       	ldd	r24, Y+7	; 0x07
     bee:	98 85       	ldd	r25, Y+8	; 0x08
     bf0:	a9 85       	ldd	r26, Y+9	; 0x09
     bf2:	ba 85       	ldd	r27, Y+10	; 0x0a
     bf4:	88 15       	cp	r24, r8
     bf6:	99 05       	cpc	r25, r9
     bf8:	aa 05       	cpc	r26, r10
     bfa:	bb 05       	cpc	r27, r11
     bfc:	0c f0       	brlt	.+2      	; 0xc00 <Ellipse+0x1b2>
     bfe:	a0 cf       	rjmp	.-192    	; 0xb40 <Ellipse+0xf2>
			error += a2*(y-1);
			y--;
			stopX -= a2;
		}
	}
	x=a; y=0; error = b*b*a;
     c00:	ad 8d       	ldd	r26, Y+29	; 0x1d
     c02:	be 8d       	ldd	r27, Y+30	; 0x1e
     c04:	aa 9f       	mul	r26, r26
     c06:	c0 01       	movw	r24, r0
     c08:	ab 9f       	mul	r26, r27
     c0a:	90 0d       	add	r25, r0
     c0c:	ba 9f       	mul	r27, r26
     c0e:	90 0d       	add	r25, r0
     c10:	11 24       	eor	r1, r1
     c12:	fc 01       	movw	r30, r24
     c14:	e2 9d       	mul	r30, r2
     c16:	c0 01       	movw	r24, r0
     c18:	e3 9d       	mul	r30, r3
     c1a:	90 0d       	add	r25, r0
     c1c:	f2 9d       	mul	r31, r2
     c1e:	90 0d       	add	r25, r0
     c20:	11 24       	eor	r1, r1
     c22:	2c 01       	movw	r4, r24
     c24:	66 24       	eor	r6, r6
     c26:	57 fc       	sbrc	r5, 7
     c28:	60 94       	com	r6
     c2a:	76 2c       	mov	r7, r6
	stopY = a*b2; stopX = 0;
     c2c:	6b 85       	ldd	r22, Y+11	; 0x0b
     c2e:	7c 85       	ldd	r23, Y+12	; 0x0c
     c30:	8d 85       	ldd	r24, Y+13	; 0x0d
     c32:	9e 85       	ldd	r25, Y+14	; 0x0e
     c34:	2d 89       	ldd	r18, Y+21	; 0x15
     c36:	3e 89       	ldd	r19, Y+22	; 0x16
     c38:	4f 89       	ldd	r20, Y+23	; 0x17
     c3a:	58 8d       	ldd	r21, Y+24	; 0x18
     c3c:	0e 94 10 13 	call	0x2620	; 0x2620 <__mulsi3>
     c40:	6b 83       	std	Y+3, r22	; 0x03
     c42:	7c 83       	std	Y+4, r23	; 0x04
     c44:	8d 83       	std	Y+5, r24	; 0x05
     c46:	9e 83       	std	Y+6, r25	; 0x06
     c48:	3e 8e       	std	Y+30, r3	; 0x1e
     c4a:	2d 8e       	std	Y+29, r2	; 0x1d
     c4c:	22 24       	eor	r2, r2
     c4e:	33 24       	eor	r3, r3
     c50:	88 24       	eor	r8, r8
     c52:	99 24       	eor	r9, r9
     c54:	54 01       	movw	r10, r8
     c56:	53 c0       	rjmp	.+166    	; 0xcfe <Ellipse+0x2b0>
	while (stopY >= stopX)
	{
		DrawPixel(x0+x,y0+y,color);
     c58:	dd 8c       	ldd	r13, Y+29	; 0x1d
     c5a:	0b 8d       	ldd	r16, Y+27	; 0x1b
     c5c:	0d 0d       	add	r16, r13
}
void Ellipse (int x0, int y0, int width, int height, int color)
// draws an ellipse of given width & height
// two-part Bresenham method
// note: slight discontinuity between parts on some (narrow) ellipses.
{
     c5e:	ec 8c       	ldd	r14, Y+28	; 0x1c
     c60:	e2 0c       	add	r14, r2
	}
	x=a; y=0; error = b*b*a;
	stopY = a*b2; stopX = 0;
	while (stopY >= stopX)
	{
		DrawPixel(x0+x,y0+y,color);
     c62:	80 2f       	mov	r24, r16
     c64:	6e 2d       	mov	r22, r14
     c66:	49 8d       	ldd	r20, Y+25	; 0x19
     c68:	5a 8d       	ldd	r21, Y+26	; 0x1a
     c6a:	0e 94 7f 02 	call	0x4fe	; 0x4fe <DrawPixel>
     c6e:	fc 8c       	ldd	r15, Y+28	; 0x1c
     c70:	f2 18       	sub	r15, r2
		DrawPixel(x0+x,y0-y,color);
     c72:	80 2f       	mov	r24, r16
     c74:	6f 2d       	mov	r22, r15
     c76:	49 8d       	ldd	r20, Y+25	; 0x19
     c78:	5a 8d       	ldd	r21, Y+26	; 0x1a
     c7a:	0e 94 7f 02 	call	0x4fe	; 0x4fe <DrawPixel>
		DrawPixel(x0-x,y0+y,color);
     c7e:	1b 8d       	ldd	r17, Y+27	; 0x1b
     c80:	1d 19       	sub	r17, r13
     c82:	81 2f       	mov	r24, r17
     c84:	6e 2d       	mov	r22, r14
     c86:	49 8d       	ldd	r20, Y+25	; 0x19
     c88:	5a 8d       	ldd	r21, Y+26	; 0x1a
     c8a:	0e 94 7f 02 	call	0x4fe	; 0x4fe <DrawPixel>
		DrawPixel(x0-x,y0-y,color);
     c8e:	81 2f       	mov	r24, r17
     c90:	6f 2d       	mov	r22, r15
     c92:	49 8d       	ldd	r20, Y+25	; 0x19
     c94:	5a 8d       	ldd	r21, Y+26	; 0x1a
     c96:	0e 94 7f 02 	call	0x4fe	; 0x4fe <DrawPixel>
		y++;
		error -= a2*(y-1);
     c9a:	48 18       	sub	r4, r8
     c9c:	59 08       	sbc	r5, r9
     c9e:	6a 08       	sbc	r6, r10
     ca0:	7b 08       	sbc	r7, r11
		stopX += a2;
		if (error < 0)
     ca2:	77 fe       	sbrs	r7, 7
     ca4:	21 c0       	rjmp	.+66     	; 0xce8 <Ellipse+0x29a>
		{
			error += b2*(x-1);
     ca6:	2d 8d       	ldd	r18, Y+29	; 0x1d
     ca8:	3e 8d       	ldd	r19, Y+30	; 0x1e
     caa:	21 50       	subi	r18, 0x01	; 1
     cac:	30 40       	sbci	r19, 0x00	; 0
     cae:	3e 8f       	std	Y+30, r19	; 0x1e
     cb0:	2d 8f       	std	Y+29, r18	; 0x1d
     cb2:	b9 01       	movw	r22, r18
     cb4:	88 27       	eor	r24, r24
     cb6:	77 fd       	sbrc	r23, 7
     cb8:	80 95       	com	r24
     cba:	98 2f       	mov	r25, r24
     cbc:	2b 85       	ldd	r18, Y+11	; 0x0b
     cbe:	3c 85       	ldd	r19, Y+12	; 0x0c
     cc0:	4d 85       	ldd	r20, Y+13	; 0x0d
     cc2:	5e 85       	ldd	r21, Y+14	; 0x0e
     cc4:	0e 94 10 13 	call	0x2620	; 0x2620 <__mulsi3>
     cc8:	46 0e       	add	r4, r22
     cca:	57 1e       	adc	r5, r23
     ccc:	68 1e       	adc	r6, r24
     cce:	79 1e       	adc	r7, r25
			x--;
			stopY -= b2;
     cd0:	8b 81       	ldd	r24, Y+3	; 0x03
     cd2:	9c 81       	ldd	r25, Y+4	; 0x04
     cd4:	ad 81       	ldd	r26, Y+5	; 0x05
     cd6:	be 81       	ldd	r27, Y+6	; 0x06
     cd8:	82 1b       	sub	r24, r18
     cda:	93 0b       	sbc	r25, r19
     cdc:	a4 0b       	sbc	r26, r20
     cde:	b5 0b       	sbc	r27, r21
     ce0:	8b 83       	std	Y+3, r24	; 0x03
     ce2:	9c 83       	std	Y+4, r25	; 0x04
     ce4:	ad 83       	std	Y+5, r26	; 0x05
     ce6:	be 83       	std	Y+6, r27	; 0x06
	{
		DrawPixel(x0+x,y0+y,color);
		DrawPixel(x0+x,y0-y,color);
		DrawPixel(x0-x,y0+y,color);
		DrawPixel(x0-x,y0-y,color);
		y++;
     ce8:	08 94       	sec
     cea:	21 1c       	adc	r2, r1
     cec:	31 1c       	adc	r3, r1
}
void Ellipse (int x0, int y0, int width, int height, int color)
// draws an ellipse of given width & height
// two-part Bresenham method
// note: slight discontinuity between parts on some (narrow) ellipses.
{
     cee:	2f 85       	ldd	r18, Y+15	; 0x0f
     cf0:	38 89       	ldd	r19, Y+16	; 0x10
     cf2:	49 89       	ldd	r20, Y+17	; 0x11
     cf4:	5a 89       	ldd	r21, Y+18	; 0x12
     cf6:	82 0e       	add	r8, r18
     cf8:	93 1e       	adc	r9, r19
     cfa:	a4 1e       	adc	r10, r20
     cfc:	b5 1e       	adc	r11, r21
			stopX -= a2;
		}
	}
	x=a; y=0; error = b*b*a;
	stopY = a*b2; stopX = 0;
	while (stopY >= stopX)
     cfe:	8b 81       	ldd	r24, Y+3	; 0x03
     d00:	9c 81       	ldd	r25, Y+4	; 0x04
     d02:	ad 81       	ldd	r26, Y+5	; 0x05
     d04:	be 81       	ldd	r27, Y+6	; 0x06
     d06:	88 15       	cp	r24, r8
     d08:	99 05       	cpc	r25, r9
     d0a:	aa 05       	cpc	r26, r10
     d0c:	bb 05       	cpc	r27, r11
     d0e:	0c f0       	brlt	.+2      	; 0xd12 <Ellipse+0x2c4>
     d10:	a3 cf       	rjmp	.-186    	; 0xc58 <Ellipse+0x20a>
			error += b2*(x-1);
			x--;
			stopY -= b2;
		}
	}
} 
     d12:	6e 96       	adiw	r28, 0x1e	; 30
     d14:	0f b6       	in	r0, 0x3f	; 63
     d16:	f8 94       	cli
     d18:	de bf       	out	0x3e, r29	; 62
     d1a:	0f be       	out	0x3f, r0	; 63
     d1c:	cd bf       	out	0x3d, r28	; 61
     d1e:	cf 91       	pop	r28
     d20:	df 91       	pop	r29
     d22:	1f 91       	pop	r17
     d24:	0f 91       	pop	r16
     d26:	ff 90       	pop	r15
     d28:	ef 90       	pop	r14
     d2a:	df 90       	pop	r13
     d2c:	cf 90       	pop	r12
     d2e:	bf 90       	pop	r11
     d30:	af 90       	pop	r10
     d32:	9f 90       	pop	r9
     d34:	8f 90       	pop	r8
     d36:	7f 90       	pop	r7
     d38:	6f 90       	pop	r6
     d3a:	5f 90       	pop	r5
     d3c:	4f 90       	pop	r4
     d3e:	3f 90       	pop	r3
     d40:	2f 90       	pop	r2
     d42:	08 95       	ret

00000d44 <FillEllipse>:
void FillEllipse(int xPos,int yPos,int width,int height, int color)
// draws a filled ellipse of given width & height
{
     d44:	2f 92       	push	r2
     d46:	3f 92       	push	r3
     d48:	4f 92       	push	r4
     d4a:	5f 92       	push	r5
     d4c:	6f 92       	push	r6
     d4e:	7f 92       	push	r7
     d50:	8f 92       	push	r8
     d52:	9f 92       	push	r9
     d54:	af 92       	push	r10
     d56:	bf 92       	push	r11
     d58:	cf 92       	push	r12
     d5a:	df 92       	push	r13
     d5c:	ef 92       	push	r14
     d5e:	ff 92       	push	r15
     d60:	0f 93       	push	r16
     d62:	1f 93       	push	r17
     d64:	df 93       	push	r29
     d66:	cf 93       	push	r28
     d68:	cd b7       	in	r28, 0x3d	; 61
     d6a:	de b7       	in	r29, 0x3e	; 62
     d6c:	66 97       	sbiw	r28, 0x16	; 22
     d6e:	0f b6       	in	r0, 0x3f	; 63
     d70:	f8 94       	cli
     d72:	de bf       	out	0x3e, r29	; 62
     d74:	0f be       	out	0x3f, r0	; 63
     d76:	cd bf       	out	0x3d, r28	; 61
     d78:	8b 8b       	std	Y+19, r24	; 0x13
     d7a:	6c 8b       	std	Y+20, r22	; 0x14
     d7c:	ca 01       	movw	r24, r20
     d7e:	1a 8b       	std	Y+18, r17	; 0x12
     d80:	09 8b       	std	Y+17, r16	; 0x11
	int a=width/2, b=height/2;  // get x & y radii
     d82:	62 e0       	ldi	r22, 0x02	; 2
     d84:	70 e0       	ldi	r23, 0x00	; 0
     d86:	0e 94 3b 13 	call	0x2676	; 0x2676 <__divmodhi4>
     d8a:	8b 01       	movw	r16, r22
     d8c:	c9 01       	movw	r24, r18
     d8e:	62 e0       	ldi	r22, 0x02	; 2
     d90:	70 e0       	ldi	r23, 0x00	; 0
     d92:	0e 94 3b 13 	call	0x2676	; 0x2676 <__divmodhi4>
     d96:	3b 01       	movw	r6, r22
	int x1, x0 = a, y = 1, dx = 0;
	long a2 = a*a, b2 = b*b;  // need longs: big numbers!
     d98:	00 9f       	mul	r16, r16
     d9a:	c0 01       	movw	r24, r0
     d9c:	01 9f       	mul	r16, r17
     d9e:	90 0d       	add	r25, r0
     da0:	10 9f       	mul	r17, r16
     da2:	90 0d       	add	r25, r0
     da4:	11 24       	eor	r1, r1
     da6:	9c 01       	movw	r18, r24
     da8:	44 27       	eor	r20, r20
     daa:	37 fd       	sbrc	r19, 7
     dac:	40 95       	com	r20
     dae:	54 2f       	mov	r21, r20
     db0:	29 87       	std	Y+9, r18	; 0x09
     db2:	3a 87       	std	Y+10, r19	; 0x0a
     db4:	4b 87       	std	Y+11, r20	; 0x0b
     db6:	5c 87       	std	Y+12, r21	; 0x0c
     db8:	66 9f       	mul	r22, r22
     dba:	c0 01       	movw	r24, r0
     dbc:	67 9f       	mul	r22, r23
     dbe:	90 0d       	add	r25, r0
     dc0:	76 9f       	mul	r23, r22
     dc2:	90 0d       	add	r25, r0
     dc4:	11 24       	eor	r1, r1
     dc6:	9c 01       	movw	r18, r24
     dc8:	44 27       	eor	r20, r20
     dca:	37 fd       	sbrc	r19, 7
     dcc:	40 95       	com	r20
     dce:	54 2f       	mov	r21, r20
     dd0:	2d 83       	std	Y+5, r18	; 0x05
     dd2:	3e 83       	std	Y+6, r19	; 0x06
     dd4:	4f 83       	std	Y+7, r20	; 0x07
     dd6:	58 87       	std	Y+8, r21	; 0x08
	long a2b2 = a2 * b2;
     dd8:	ca 01       	movw	r24, r20
     dda:	b9 01       	movw	r22, r18
     ddc:	29 85       	ldd	r18, Y+9	; 0x09
     dde:	3a 85       	ldd	r19, Y+10	; 0x0a
     de0:	4b 85       	ldd	r20, Y+11	; 0x0b
     de2:	5c 85       	ldd	r21, Y+12	; 0x0c
     de4:	0e 94 10 13 	call	0x2620	; 0x2620 <__mulsi3>
     de8:	69 83       	std	Y+1, r22	; 0x01
     dea:	7a 83       	std	Y+2, r23	; 0x02
     dec:	8b 83       	std	Y+3, r24	; 0x03
     dee:	9c 83       	std	Y+4, r25	; 0x04
	HLine(xPos-a,xPos+a,yPos,color);  // draw centerline
     df0:	6b 89       	ldd	r22, Y+19	; 0x13
     df2:	60 0f       	add	r22, r16
     df4:	3b 89       	ldd	r19, Y+19	; 0x13
     df6:	30 1b       	sub	r19, r16
     df8:	83 2f       	mov	r24, r19
     dfa:	4c 89       	ldd	r20, Y+20	; 0x14
     dfc:	29 89       	ldd	r18, Y+17	; 0x11
     dfe:	3a 89       	ldd	r19, Y+18	; 0x12
     e00:	0e 94 8f 02 	call	0x51e	; 0x51e <HLine>
     e04:	48 01       	movw	r8, r16
     e06:	44 24       	eor	r4, r4
     e08:	55 24       	eor	r5, r5
     e0a:	e1 e0       	ldi	r30, 0x01	; 1
     e0c:	ae 2e       	mov	r10, r30
     e0e:	b1 2c       	mov	r11, r1
     e10:	c1 2c       	mov	r12, r1
     e12:	d1 2c       	mov	r13, r1
     e14:	78 c0       	rjmp	.+240    	; 0xf06 <FillEllipse+0x1c2>
	while (y<=b)  // draw horizontal lines...
	{
		for (x1= x0-(dx-1); x1>0; x1--)
     e16:	08 94       	sec
     e18:	81 1c       	adc	r8, r1
     e1a:	91 1c       	adc	r9, r1
		if (b2*x1*x1 + a2*y*y <= a2b2)
     e1c:	b5 01       	movw	r22, r10
     e1e:	c6 01       	movw	r24, r12
     e20:	95 01       	movw	r18, r10
     e22:	a6 01       	movw	r20, r12
     e24:	0e 94 10 13 	call	0x2620	; 0x2620 <__mulsi3>
     e28:	29 85       	ldd	r18, Y+9	; 0x09
     e2a:	3a 85       	ldd	r19, Y+10	; 0x0a
     e2c:	4b 85       	ldd	r20, Y+11	; 0x0b
     e2e:	5c 85       	ldd	r21, Y+12	; 0x0c
     e30:	0e 94 10 13 	call	0x2620	; 0x2620 <__mulsi3>
     e34:	6d 87       	std	Y+13, r22	; 0x0d
     e36:	7e 87       	std	Y+14, r23	; 0x0e
     e38:	8f 87       	std	Y+15, r24	; 0x0f
     e3a:	98 8b       	std	Y+16, r25	; 0x10
     e3c:	a4 01       	movw	r20, r8
     e3e:	44 19       	sub	r20, r4
     e40:	55 09       	sbc	r21, r5
     e42:	5e 8b       	std	Y+22, r21	; 0x16
     e44:	4d 8b       	std	Y+21, r20	; 0x15
     e46:	08 94       	sec
     e48:	81 08       	sbc	r8, r1
     e4a:	91 08       	sbc	r9, r1
     e4c:	ee 24       	eor	r14, r14
     e4e:	ff 24       	eor	r15, r15
     e50:	87 01       	movw	r16, r14
	long a2 = a*a, b2 = b*b;  // need longs: big numbers!
	long a2b2 = a2 * b2;
	HLine(xPos-a,xPos+a,yPos,color);  // draw centerline
	while (y<=b)  // draw horizontal lines...
	{
		for (x1= x0-(dx-1); x1>0; x1--)
     e52:	1a 01       	movw	r2, r20
     e54:	44 24       	eor	r4, r4
     e56:	37 fc       	sbrc	r3, 7
     e58:	40 94       	com	r4
     e5a:	54 2c       	mov	r5, r4
     e5c:	2c c0       	rjmp	.+88     	; 0xeb6 <FillEllipse+0x172>
     e5e:	a8 01       	movw	r20, r16
     e60:	97 01       	movw	r18, r14
     e62:	22 0d       	add	r18, r2
     e64:	33 1d       	adc	r19, r3
     e66:	44 1d       	adc	r20, r4
     e68:	55 1d       	adc	r21, r5
     e6a:	08 94       	sec
     e6c:	e1 08       	sbc	r14, r1
     e6e:	f1 08       	sbc	r15, r1
     e70:	01 09       	sbc	r16, r1
     e72:	11 09       	sbc	r17, r1
		if (b2*x1*x1 + a2*y*y <= a2b2)
     e74:	ca 01       	movw	r24, r20
     e76:	b9 01       	movw	r22, r18
     e78:	0e 94 10 13 	call	0x2620	; 0x2620 <__mulsi3>
     e7c:	2d 81       	ldd	r18, Y+5	; 0x05
     e7e:	3e 81       	ldd	r19, Y+6	; 0x06
     e80:	4f 81       	ldd	r20, Y+7	; 0x07
     e82:	58 85       	ldd	r21, Y+8	; 0x08
     e84:	0e 94 10 13 	call	0x2620	; 0x2620 <__mulsi3>
     e88:	2d 85       	ldd	r18, Y+13	; 0x0d
     e8a:	3e 85       	ldd	r19, Y+14	; 0x0e
     e8c:	4f 85       	ldd	r20, Y+15	; 0x0f
     e8e:	58 89       	ldd	r21, Y+16	; 0x10
     e90:	62 0f       	add	r22, r18
     e92:	73 1f       	adc	r23, r19
     e94:	84 1f       	adc	r24, r20
     e96:	95 1f       	adc	r25, r21
     e98:	29 81       	ldd	r18, Y+1	; 0x01
     e9a:	3a 81       	ldd	r19, Y+2	; 0x02
     e9c:	4b 81       	ldd	r20, Y+3	; 0x03
     e9e:	5c 81       	ldd	r21, Y+4	; 0x04
     ea0:	26 17       	cp	r18, r22
     ea2:	37 07       	cpc	r19, r23
     ea4:	48 07       	cpc	r20, r24
     ea6:	59 07       	cpc	r21, r25
     ea8:	5c f4       	brge	.+22     	; 0xec0 <FillEllipse+0x17c>
	long a2 = a*a, b2 = b*b;  // need longs: big numbers!
	long a2b2 = a2 * b2;
	HLine(xPos-a,xPos+a,yPos,color);  // draw centerline
	while (y<=b)  // draw horizontal lines...
	{
		for (x1= x0-(dx-1); x1>0; x1--)
     eaa:	4d 89       	ldd	r20, Y+21	; 0x15
     eac:	5e 89       	ldd	r21, Y+22	; 0x16
     eae:	41 50       	subi	r20, 0x01	; 1
     eb0:	50 40       	sbci	r21, 0x00	; 0
     eb2:	5e 8b       	std	Y+22, r21	; 0x16
     eb4:	4d 8b       	std	Y+21, r20	; 0x15
     eb6:	8d 89       	ldd	r24, Y+21	; 0x15
     eb8:	9e 89       	ldd	r25, Y+22	; 0x16
     eba:	18 16       	cp	r1, r24
     ebc:	19 06       	cpc	r1, r25
     ebe:	7c f2       	brlt	.-98     	; 0xe5e <FillEllipse+0x11a>
     ec0:	1d 89       	ldd	r17, Y+21	; 0x15
		if (b2*x1*x1 + a2*y*y <= a2b2)
		break;
		dx = x0-x1;
     ec2:	24 01       	movw	r4, r8
     ec4:	ed 89       	ldd	r30, Y+21	; 0x15
     ec6:	fe 89       	ldd	r31, Y+22	; 0x16
     ec8:	4e 1a       	sub	r4, r30
     eca:	5f 0a       	sbc	r5, r31
		x0 = x1;
		HLine(xPos-x0,xPos+x0,yPos+y,color);
     ecc:	fb 88       	ldd	r15, Y+19	; 0x13
     ece:	f1 1a       	sub	r15, r17
     ed0:	fb 89       	ldd	r31, Y+19	; 0x13
     ed2:	1f 0f       	add	r17, r31
     ed4:	4c 89       	ldd	r20, Y+20	; 0x14
     ed6:	4a 0d       	add	r20, r10
     ed8:	8f 2d       	mov	r24, r15
     eda:	61 2f       	mov	r22, r17
     edc:	29 89       	ldd	r18, Y+17	; 0x11
     ede:	3a 89       	ldd	r19, Y+18	; 0x12
     ee0:	0e 94 8f 02 	call	0x51e	; 0x51e <HLine>
		HLine(xPos-x0,xPos+x0,yPos-y,color);
     ee4:	4c 89       	ldd	r20, Y+20	; 0x14
     ee6:	4a 19       	sub	r20, r10
     ee8:	8f 2d       	mov	r24, r15
     eea:	61 2f       	mov	r22, r17
     eec:	29 89       	ldd	r18, Y+17	; 0x11
     eee:	3a 89       	ldd	r19, Y+18	; 0x12
     ef0:	0e 94 8f 02 	call	0x51e	; 0x51e <HLine>
     ef4:	08 94       	sec
     ef6:	a1 1c       	adc	r10, r1
     ef8:	b1 1c       	adc	r11, r1
     efa:	c1 1c       	adc	r12, r1
     efc:	d1 1c       	adc	r13, r1
     efe:	2d 89       	ldd	r18, Y+21	; 0x15
     f00:	3e 89       	ldd	r19, Y+22	; 0x16
     f02:	c9 01       	movw	r24, r18
     f04:	4c 01       	movw	r8, r24
	int a=width/2, b=height/2;  // get x & y radii
	int x1, x0 = a, y = 1, dx = 0;
	long a2 = a*a, b2 = b*b;  // need longs: big numbers!
	long a2b2 = a2 * b2;
	HLine(xPos-a,xPos+a,yPos,color);  // draw centerline
	while (y<=b)  // draw horizontal lines...
     f06:	6a 14       	cp	r6, r10
     f08:	7b 04       	cpc	r7, r11
     f0a:	0c f0       	brlt	.+2      	; 0xf0e <FillEllipse+0x1ca>
     f0c:	84 cf       	rjmp	.-248    	; 0xe16 <FillEllipse+0xd2>
		x0 = x1;
		HLine(xPos-x0,xPos+x0,yPos+y,color);
		HLine(xPos-x0,xPos+x0,yPos-y,color);
		y += 1;
	}
}
     f0e:	66 96       	adiw	r28, 0x16	; 22
     f10:	0f b6       	in	r0, 0x3f	; 63
     f12:	f8 94       	cli
     f14:	de bf       	out	0x3e, r29	; 62
     f16:	0f be       	out	0x3f, r0	; 63
     f18:	cd bf       	out	0x3d, r28	; 61
     f1a:	cf 91       	pop	r28
     f1c:	df 91       	pop	r29
     f1e:	1f 91       	pop	r17
     f20:	0f 91       	pop	r16
     f22:	ff 90       	pop	r15
     f24:	ef 90       	pop	r14
     f26:	df 90       	pop	r13
     f28:	cf 90       	pop	r12
     f2a:	bf 90       	pop	r11
     f2c:	af 90       	pop	r10
     f2e:	9f 90       	pop	r9
     f30:	8f 90       	pop	r8
     f32:	7f 90       	pop	r7
     f34:	6f 90       	pop	r6
     f36:	5f 90       	pop	r5
     f38:	4f 90       	pop	r4
     f3a:	3f 90       	pop	r3
     f3c:	2f 90       	pop	r2
     f3e:	08 95       	ret

00000f40 <GotoXY>:
// Total number of characters in landscape mode = 26x16 = 416. 
byte curX,curY;  // current x & y cursor position
void GotoXY (byte x,byte y)
// position cursor on character x,y grid, where 0<x<20, 0<y<19.
{
	curX = x;
     f40:	80 93 7a 01 	sts	0x017A, r24
	curY = y;
     f44:	60 93 7b 01 	sts	0x017B, r22
}
     f48:	08 95       	ret

00000f4a <GotoLine>:
void GotoLine(byte y)
// position character cursor to start of line y, where 0<y<19.
{
	curX = 0;
     f4a:	10 92 7a 01 	sts	0x017A, r1
	curY = y;
     f4e:	80 93 7b 01 	sts	0x017B, r24
}
     f52:	08 95       	ret

00000f54 <AdvanceCursor>:
void AdvanceCursor()
// moves character cursor to next position, assuming portrait orientation
{
	curX++;  // advance x position
     f54:	80 91 7a 01 	lds	r24, 0x017A
     f58:	8f 5f       	subi	r24, 0xFF	; 255
     f5a:	80 93 7a 01 	sts	0x017A, r24
	if (curX>20)  // beyond right margin?
     f5e:	85 31       	cpi	r24, 0x15	; 21
     f60:	38 f0       	brcs	.+14     	; 0xf70 <AdvanceCursor+0x1c>
	{
		curY++;  // go to next line
     f62:	80 91 7b 01 	lds	r24, 0x017B
     f66:	8f 5f       	subi	r24, 0xFF	; 255
     f68:	80 93 7b 01 	sts	0x017B, r24
		curX = 0;  // at left margin
     f6c:	10 92 7a 01 	sts	0x017A, r1
	}
	if (curY>19)  // beyond bottom margin?
     f70:	80 91 7b 01 	lds	r24, 0x017B
     f74:	84 31       	cpi	r24, 0x14	; 20
     f76:	10 f0       	brcs	.+4      	; 0xf7c <AdvanceCursor+0x28>
	curY = 0;  // start at top again
     f78:	10 92 7b 01 	sts	0x017B, r1
     f7c:	08 95       	ret

00000f7e <SetOrientation>:
}
void SetOrientation(int degrees)
// Set the display orientation to 0,90,180,or 270 degrees
{ 
     f7e:	1f 93       	push	r17
	byte arg;
	switch (degrees)
     f80:	84 3b       	cpi	r24, 0xB4	; 180
     f82:	91 05       	cpc	r25, r1
     f84:	41 f0       	breq	.+16     	; 0xf96 <SetOrientation+0x18>
     f86:	21 e0       	ldi	r18, 0x01	; 1
     f88:	8e 30       	cpi	r24, 0x0E	; 14
     f8a:	92 07       	cpc	r25, r18
     f8c:	41 f0       	breq	.+16     	; 0xf9e <SetOrientation+0x20>
     f8e:	8a 35       	cpi	r24, 0x5A	; 90
     f90:	91 05       	cpc	r25, r1
     f92:	39 f4       	brne	.+14     	; 0xfa2 <SetOrientation+0x24>
     f94:	02 c0       	rjmp	.+4      	; 0xf9a <SetOrientation+0x1c>
     f96:	10 ec       	ldi	r17, 0xC0	; 192
     f98:	05 c0       	rjmp	.+10     	; 0xfa4 <SetOrientation+0x26>
     f9a:	10 e6       	ldi	r17, 0x60	; 96
     f9c:	03 c0       	rjmp	.+6      	; 0xfa4 <SetOrientation+0x26>
     f9e:	10 ea       	ldi	r17, 0xA0	; 160
     fa0:	01 c0       	rjmp	.+2      	; 0xfa4 <SetOrientation+0x26>
	{
		case  90: arg = 0x60; break;
		case 180: arg = 0xC0; break;
		case 270: arg = 0xA0; break;
     fa2:	10 e0       	ldi	r17, 0x00	; 0
		default:  arg = 0x00; break;
	}
	WriteCmd(MADCTL);
     fa4:	86 e3       	ldi	r24, 0x36	; 54
     fa6:	0e 94 b6 01 	call	0x36c	; 0x36c <WriteCmd>
	SPCR = 0x00;  // clear SPI enable bit
}

byte Xfer(byte data) //transfer routine
{
	SPDR = data;  // initiate transfer
     faa:	1f b9       	out	0x0f, r17	; 15
	while (!(SPSR & 0x80));  // wait for transfer to complete
     fac:	77 9b       	sbis	0x0e, 7	; 14
     fae:	fe cf       	rjmp	.-4      	; 0xfac <SetOrientation+0x2e>
	return SPDR;
     fb0:	8f b1       	in	r24, 0x0f	; 15
		case 270: arg = 0xA0; break;
		default:  arg = 0x00; break;
	}
	WriteCmd(MADCTL);
	WriteByte(arg);
}
     fb2:	1f 91       	pop	r17
     fb4:	08 95       	ret

00000fb6 <PutCh>:
void PutCh (char ch, byte x, byte y, int color)
// write ch to display X,Y coordinates using ASCII 5x7 font
{
     fb6:	af 92       	push	r10
     fb8:	bf 92       	push	r11
     fba:	cf 92       	push	r12
     fbc:	df 92       	push	r13
     fbe:	ef 92       	push	r14
     fc0:	ff 92       	push	r15
     fc2:	0f 93       	push	r16
     fc4:	1f 93       	push	r17
     fc6:	cf 93       	push	r28
     fc8:	df 93       	push	r29
     fca:	08 2f       	mov	r16, r24
     fcc:	96 2f       	mov	r25, r22
     fce:	54 2f       	mov	r21, r20
     fd0:	59 01       	movw	r10, r18
	int  pixel;
	byte row, col, bit, data, mask = 0x01;
	SetAddrWindow(x,y,x+4,y+6);
     fd2:	86 2f       	mov	r24, r22
     fd4:	64 2f       	mov	r22, r20
     fd6:	9c 5f       	subi	r25, 0xFC	; 252
     fd8:	49 2f       	mov	r20, r25
     fda:	5a 5f       	subi	r21, 0xFA	; 250
     fdc:	25 2f       	mov	r18, r21
     fde:	0e 94 3d 02 	call	0x47a	; 0x47a <SetAddrWindow>
	WriteCmd(RAMWR);
     fe2:	8c e2       	ldi	r24, 0x2C	; 44
     fe4:	0e 94 b6 01 	call	0x36c	; 0x36c <WriteCmd>
	for (row=0; row<7;row++)
	{
		for (col=0; col<5;col++)
		{
			data = pgm_read_byte(&(FONT_CHARS[ch-32][col]));
     fe8:	85 e0       	ldi	r24, 0x05	; 5
     fea:	08 9f       	mul	r16, r24
     fec:	80 01       	movw	r16, r0
     fee:	11 24       	eor	r1, r1
     ff0:	ee 24       	eor	r14, r14
     ff2:	ff 24       	eor	r15, r15
     ff4:	f3 94       	inc	r15
			bit = data & mask;
			if (bit==0) pixel=BLACK;
			else  pixel=color;
			WriteWord(pixel);
		}
		mask <<= 1;
     ff6:	f2 ed       	ldi	r31, 0xD2	; 210
     ff8:	cf 2e       	mov	r12, r31
     ffa:	ff ef       	ldi	r31, 0xFF	; 255
     ffc:	df 2e       	mov	r13, r31
     ffe:	c0 0e       	add	r12, r16
    1000:	d1 1e       	adc	r13, r17
	byte row, col, bit, data, mask = 0x01;
	SetAddrWindow(x,y,x+4,y+6);
	WriteCmd(RAMWR);
	for (row=0; row<7;row++)
	{
		for (col=0; col<5;col++)
    1002:	09 52       	subi	r16, 0x29	; 41
    1004:	10 40       	sbci	r17, 0x00	; 0
    1006:	14 c0       	rjmp	.+40     	; 0x1030 <PutCh+0x7a>
		{
			data = pgm_read_byte(&(FONT_CHARS[ch-32][col]));
    1008:	fe 01       	movw	r30, r28
    100a:	84 91       	lpm	r24, Z+
			bit = data & mask;
			if (bit==0) pixel=BLACK;
    100c:	8f 21       	and	r24, r15
    100e:	19 f4       	brne	.+6      	; 0x1016 <PutCh+0x60>
    1010:	20 e0       	ldi	r18, 0x00	; 0
    1012:	30 e0       	ldi	r19, 0x00	; 0
    1014:	01 c0       	rjmp	.+2      	; 0x1018 <PutCh+0x62>
    1016:	95 01       	movw	r18, r10
			else  pixel=color;
			WriteWord(pixel);
    1018:	c9 01       	movw	r24, r18
    101a:	0e 94 c2 01 	call	0x384	; 0x384 <WriteWord>
    101e:	21 96       	adiw	r28, 0x01	; 1
	byte row, col, bit, data, mask = 0x01;
	SetAddrWindow(x,y,x+4,y+6);
	WriteCmd(RAMWR);
	for (row=0; row<7;row++)
	{
		for (col=0; col<5;col++)
    1020:	c0 17       	cp	r28, r16
    1022:	d1 07       	cpc	r29, r17
    1024:	89 f7       	brne	.-30     	; 0x1008 <PutCh+0x52>
{
	int  pixel;
	byte row, col, bit, data, mask = 0x01;
	SetAddrWindow(x,y,x+4,y+6);
	WriteCmd(RAMWR);
	for (row=0; row<7;row++)
    1026:	e3 94       	inc	r14
    1028:	f7 e0       	ldi	r31, 0x07	; 7
    102a:	ef 16       	cp	r14, r31
    102c:	19 f0       	breq	.+6      	; 0x1034 <PutCh+0x7e>
			bit = data & mask;
			if (bit==0) pixel=BLACK;
			else  pixel=color;
			WriteWord(pixel);
		}
		mask <<= 1;
    102e:	ff 0c       	add	r15, r15
    1030:	e6 01       	movw	r28, r12
    1032:	ea cf       	rjmp	.-44     	; 0x1008 <PutCh+0x52>
	}
}
    1034:	df 91       	pop	r29
    1036:	cf 91       	pop	r28
    1038:	1f 91       	pop	r17
    103a:	0f 91       	pop	r16
    103c:	ff 90       	pop	r15
    103e:	ef 90       	pop	r14
    1040:	df 90       	pop	r13
    1042:	cf 90       	pop	r12
    1044:	bf 90       	pop	r11
    1046:	af 90       	pop	r10
    1048:	08 95       	ret

0000104a <WriteChar>:
void WriteChar(char ch, int color)
// writes character to display at current cursor position.
{
    104a:	9b 01       	movw	r18, r22
	PutCh(ch,curX*6, curY*8, color);
    104c:	60 91 7a 01 	lds	r22, 0x017A
    1050:	96 e0       	ldi	r25, 0x06	; 6
    1052:	69 9f       	mul	r22, r25
    1054:	b0 01       	movw	r22, r0
    1056:	11 24       	eor	r1, r1
    1058:	40 91 7b 01 	lds	r20, 0x017B
    105c:	50 e0       	ldi	r21, 0x00	; 0
    105e:	a3 e0       	ldi	r26, 0x03	; 3
    1060:	44 0f       	add	r20, r20
    1062:	55 1f       	adc	r21, r21
    1064:	aa 95       	dec	r26
    1066:	e1 f7       	brne	.-8      	; 0x1060 <WriteChar+0x16>
    1068:	0e 94 db 07 	call	0xfb6	; 0xfb6 <PutCh>
	AdvanceCursor();
    106c:	0e 94 aa 07 	call	0xf54	; 0xf54 <AdvanceCursor>
}
    1070:	08 95       	ret

00001072 <WriteString>:
void WriteString(char *text, int color)
// writes string to display at current cursor position.
{
    1072:	0f 93       	push	r16
    1074:	1f 93       	push	r17
    1076:	cf 93       	push	r28
    1078:	df 93       	push	r29
    107a:	ec 01       	movw	r28, r24
    107c:	8b 01       	movw	r16, r22
    107e:	04 c0       	rjmp	.+8      	; 0x1088 <WriteString+0x16>
	for (;*text;text++)  // for all non-nul chars
	WriteChar(*text,color);  // write the char
    1080:	b8 01       	movw	r22, r16
    1082:	0e 94 25 08 	call	0x104a	; 0x104a <WriteChar>
	AdvanceCursor();
}
void WriteString(char *text, int color)
// writes string to display at current cursor position.
{
	for (;*text;text++)  // for all non-nul chars
    1086:	21 96       	adiw	r28, 0x01	; 1
    1088:	88 81       	ld	r24, Y
    108a:	88 23       	and	r24, r24
    108c:	c9 f7       	brne	.-14     	; 0x1080 <WriteString+0xe>
	WriteChar(*text,color);  // write the char
}
    108e:	df 91       	pop	r29
    1090:	cf 91       	pop	r28
    1092:	1f 91       	pop	r17
    1094:	0f 91       	pop	r16
    1096:	08 95       	ret

00001098 <LineTest>:
		DrawPixel(x,y,YELLOW);  // draw pixel at x,y
	}
}
void LineTest()
// sweeps Line routine through all four quadrants.
{
    1098:	0f 93       	push	r16
    109a:	1f 93       	push	r17
    109c:	cf 93       	push	r28
    109e:	df 93       	push	r29
	ClearScreen();
    10a0:	0e 94 60 02 	call	0x4c0	; 0x4c0 <ClearScreen>
    10a4:	c0 e0       	ldi	r28, 0x00	; 0
    10a6:	d0 e0       	ldi	r29, 0x00	; 0
	int x,y,x0=64,y0=80;
	for (x=0;x<XMAX;x+=2) Line(x0,y0,x,0,YELLOW);
    10a8:	80 e4       	ldi	r24, 0x40	; 64
    10aa:	90 e0       	ldi	r25, 0x00	; 0
    10ac:	60 e5       	ldi	r22, 0x50	; 80
    10ae:	70 e0       	ldi	r23, 0x00	; 0
    10b0:	ae 01       	movw	r20, r28
    10b2:	20 e0       	ldi	r18, 0x00	; 0
    10b4:	30 e0       	ldi	r19, 0x00	; 0
    10b6:	00 ee       	ldi	r16, 0xE0	; 224
    10b8:	1f ef       	ldi	r17, 0xFF	; 255
    10ba:	0e 94 c0 02 	call	0x580	; 0x580 <Line>
    10be:	22 96       	adiw	r28, 0x02	; 2
    10c0:	c0 38       	cpi	r28, 0x80	; 128
    10c2:	d1 05       	cpc	r29, r1
    10c4:	89 f7       	brne	.-30     	; 0x10a8 <LineTest+0x10>
    10c6:	c0 e0       	ldi	r28, 0x00	; 0
    10c8:	d0 e0       	ldi	r29, 0x00	; 0
	for (y=0;y<YMAX;y+=2) Line(x0,y0,XMAX,y,CYAN);
    10ca:	80 e4       	ldi	r24, 0x40	; 64
    10cc:	90 e0       	ldi	r25, 0x00	; 0
    10ce:	60 e5       	ldi	r22, 0x50	; 80
    10d0:	70 e0       	ldi	r23, 0x00	; 0
    10d2:	4f e7       	ldi	r20, 0x7F	; 127
    10d4:	50 e0       	ldi	r21, 0x00	; 0
    10d6:	9e 01       	movw	r18, r28
    10d8:	0f ef       	ldi	r16, 0xFF	; 255
    10da:	17 e0       	ldi	r17, 0x07	; 7
    10dc:	0e 94 c0 02 	call	0x580	; 0x580 <Line>
    10e0:	22 96       	adiw	r28, 0x02	; 2
    10e2:	c0 3a       	cpi	r28, 0xA0	; 160
    10e4:	d1 05       	cpc	r29, r1
    10e6:	89 f7       	brne	.-30     	; 0x10ca <LineTest+0x32>
    10e8:	cf e7       	ldi	r28, 0x7F	; 127
    10ea:	d0 e0       	ldi	r29, 0x00	; 0
	for (x=XMAX;x>0;x-=2) Line(x0,y0,x,YMAX,YELLOW);
    10ec:	80 e4       	ldi	r24, 0x40	; 64
    10ee:	90 e0       	ldi	r25, 0x00	; 0
    10f0:	60 e5       	ldi	r22, 0x50	; 80
    10f2:	70 e0       	ldi	r23, 0x00	; 0
    10f4:	ae 01       	movw	r20, r28
    10f6:	2f e9       	ldi	r18, 0x9F	; 159
    10f8:	30 e0       	ldi	r19, 0x00	; 0
    10fa:	00 ee       	ldi	r16, 0xE0	; 224
    10fc:	1f ef       	ldi	r17, 0xFF	; 255
    10fe:	0e 94 c0 02 	call	0x580	; 0x580 <Line>
    1102:	22 97       	sbiw	r28, 0x02	; 2
    1104:	8f ef       	ldi	r24, 0xFF	; 255
    1106:	cf 3f       	cpi	r28, 0xFF	; 255
    1108:	d8 07       	cpc	r29, r24
    110a:	81 f7       	brne	.-32     	; 0x10ec <LineTest+0x54>
    110c:	cf e9       	ldi	r28, 0x9F	; 159
    110e:	d0 e0       	ldi	r29, 0x00	; 0
	for (y=YMAX;y>0;y-=2) Line(x0,y0,0,y,CYAN);
    1110:	80 e4       	ldi	r24, 0x40	; 64
    1112:	90 e0       	ldi	r25, 0x00	; 0
    1114:	60 e5       	ldi	r22, 0x50	; 80
    1116:	70 e0       	ldi	r23, 0x00	; 0
    1118:	40 e0       	ldi	r20, 0x00	; 0
    111a:	50 e0       	ldi	r21, 0x00	; 0
    111c:	9e 01       	movw	r18, r28
    111e:	0f ef       	ldi	r16, 0xFF	; 255
    1120:	17 e0       	ldi	r17, 0x07	; 7
    1122:	0e 94 c0 02 	call	0x580	; 0x580 <Line>
    1126:	22 97       	sbiw	r28, 0x02	; 2
    1128:	8f ef       	ldi	r24, 0xFF	; 255
    112a:	cf 3f       	cpi	r28, 0xFF	; 255
    112c:	d8 07       	cpc	r29, r24
    112e:	81 f7       	brne	.-32     	; 0x1110 <LineTest+0x78>
}
    1130:	df 91       	pop	r29
    1132:	cf 91       	pop	r28
    1134:	1f 91       	pop	r17
    1136:	0f 91       	pop	r16
    1138:	08 95       	ret

0000113a <CircleTest>:
void CircleTest()
// draw series of concentric circles
{
    113a:	1f 93       	push	r17
	ClearScreen();
    113c:	0e 94 60 02 	call	0x4c0	; 0x4c0 <ClearScreen>
    1140:	16 e0       	ldi	r17, 0x06	; 6
	for(int radius=6;radius<60;radius+=2)
	Circle(60,80,radius,YELLOW);
    1142:	8c e3       	ldi	r24, 0x3C	; 60
    1144:	60 e5       	ldi	r22, 0x50	; 80
    1146:	41 2f       	mov	r20, r17
    1148:	20 ee       	ldi	r18, 0xE0	; 224
    114a:	3f ef       	ldi	r19, 0xFF	; 255
    114c:	0e 94 6d 04 	call	0x8da	; 0x8da <Circle>
    1150:	1e 5f       	subi	r17, 0xFE	; 254
}
void CircleTest()
// draw series of concentric circles
{
	ClearScreen();
	for(int radius=6;radius<60;radius+=2)
    1152:	1c 33       	cpi	r17, 0x3C	; 60
    1154:	b1 f7       	brne	.-20     	; 0x1142 <CircleTest+0x8>
	Circle(60,80,radius,YELLOW);
}
    1156:	1f 91       	pop	r17
    1158:	08 95       	ret

0000115a <PortraitChars>:
void PortraitChars()
// Writes 420 characters (5x7) to screen in portrait mode
{
    115a:	1f 93       	push	r17
    115c:	cf 93       	push	r28
    115e:	df 93       	push	r29
	ClearScreen();
    1160:	0e 94 60 02 	call	0x4c0	; 0x4c0 <ClearScreen>
    1164:	c4 ea       	ldi	r28, 0xA4	; 164
    1166:	d1 e0       	ldi	r29, 0x01	; 1
	for (int i=420;i>0;i--)
	{
		byte x= i % 21;
		byte y= i / 21;
		char ascii = (i % 96)+32;
		PutCh(ascii,x*6,y*8,CYAN);
    1168:	16 e0       	ldi	r17, 0x06	; 6
    116a:	ce 01       	movw	r24, r28
    116c:	60 e6       	ldi	r22, 0x60	; 96
    116e:	70 e0       	ldi	r23, 0x00	; 0
    1170:	0e 94 3b 13 	call	0x2676	; 0x2676 <__divmodhi4>
    1174:	e8 2f       	mov	r30, r24
    1176:	e0 5e       	subi	r30, 0xE0	; 224
    1178:	ce 01       	movw	r24, r28
    117a:	65 e1       	ldi	r22, 0x15	; 21
    117c:	70 e0       	ldi	r23, 0x00	; 0
    117e:	0e 94 3b 13 	call	0x2676	; 0x2676 <__divmodhi4>
    1182:	81 9f       	mul	r24, r17
    1184:	90 01       	movw	r18, r0
    1186:	11 24       	eor	r1, r1
    1188:	ce 01       	movw	r24, r28
    118a:	65 e1       	ldi	r22, 0x15	; 21
    118c:	70 e0       	ldi	r23, 0x00	; 0
    118e:	0e 94 3b 13 	call	0x2676	; 0x2676 <__divmodhi4>
    1192:	46 2f       	mov	r20, r22
    1194:	50 e0       	ldi	r21, 0x00	; 0
    1196:	b3 e0       	ldi	r27, 0x03	; 3
    1198:	44 0f       	add	r20, r20
    119a:	55 1f       	adc	r21, r21
    119c:	ba 95       	dec	r27
    119e:	e1 f7       	brne	.-8      	; 0x1198 <PortraitChars+0x3e>
    11a0:	8e 2f       	mov	r24, r30
    11a2:	62 2f       	mov	r22, r18
    11a4:	2f ef       	ldi	r18, 0xFF	; 255
    11a6:	37 e0       	ldi	r19, 0x07	; 7
    11a8:	0e 94 db 07 	call	0xfb6	; 0xfb6 <PutCh>
}
void PortraitChars()
// Writes 420 characters (5x7) to screen in portrait mode
{
	ClearScreen();
	for (int i=420;i>0;i--)
    11ac:	21 97       	sbiw	r28, 0x01	; 1
    11ae:	e9 f6       	brne	.-70     	; 0x116a <PortraitChars+0x10>
		byte x= i % 21;
		byte y= i / 21;
		char ascii = (i % 96)+32;
		PutCh(ascii,x*6,y*8,CYAN);
	}
}
    11b0:	df 91       	pop	r29
    11b2:	cf 91       	pop	r28
    11b4:	1f 91       	pop	r17
    11b6:	08 95       	ret

000011b8 <detect_buttons>:

//    

char detect_buttons() {
    static char previous_port = 0xFF;
    char current_port = PINB;
    11b8:	86 b3       	in	r24, 0x16	; 22
    char buttons = ~current_port & previous_port;
    11ba:	90 91 69 00 	lds	r25, 0x0069
    previous_port = current_port;
    11be:	80 93 69 00 	sts	0x0069, r24
//    

char detect_buttons() {
    static char previous_port = 0xFF;
    char current_port = PINB;
    char buttons = ~current_port & previous_port;
    11c2:	80 95       	com	r24
    previous_port = current_port;
    return buttons;
}
    11c4:	89 23       	and	r24, r25
    11c6:	08 95       	ret

000011c8 <DrawBackground>:
    }
}

//   

void DrawBackground() {
    11c8:	0f 93       	push	r16
    11ca:	1f 93       	push	r17
    FillRect(0, 0, XSIZE, YSIZE, background_color);
    11cc:	80 e0       	ldi	r24, 0x00	; 0
    11ce:	60 e0       	ldi	r22, 0x00	; 0
    11d0:	40 e8       	ldi	r20, 0x80	; 128
    11d2:	20 ea       	ldi	r18, 0xA0	; 160
    11d4:	00 e0       	ldi	r16, 0x00	; 0
    11d6:	10 e0       	ldi	r17, 0x00	; 0
    11d8:	0e 94 84 03 	call	0x708	; 0x708 <FillRect>
}
    11dc:	1f 91       	pop	r17
    11de:	0f 91       	pop	r16
    11e0:	08 95       	ret

000011e2 <erase_prev_time>:
    }
}

//    

void erase_prev_time() {
    11e2:	6f 92       	push	r6
    11e4:	7f 92       	push	r7
    11e6:	8f 92       	push	r8
    11e8:	9f 92       	push	r9
    11ea:	af 92       	push	r10
    11ec:	bf 92       	push	r11
    11ee:	cf 92       	push	r12
    11f0:	df 92       	push	r13
    11f2:	ef 92       	push	r14
    11f4:	ff 92       	push	r15
    11f6:	0f 93       	push	r16
    11f8:	1f 93       	push	r17
    double minutesAngle = (90 - (prev_minute % 12) * 30 - (prev_second / 60.0) * 30) * M_PI / 180.0;
    11fa:	80 90 79 01 	lds	r8, 0x0179
    11fe:	99 24       	eor	r9, r9
    1200:	80 91 78 01 	lds	r24, 0x0178
    1204:	6c e0       	ldi	r22, 0x0C	; 12
    1206:	0e 94 2f 13 	call	0x265e	; 0x265e <__udivmodqi4>
    120a:	29 2f       	mov	r18, r25
    120c:	30 e0       	ldi	r19, 0x00	; 0
    120e:	82 ee       	ldi	r24, 0xE2	; 226
    1210:	9f ef       	ldi	r25, 0xFF	; 255
    1212:	28 9f       	mul	r18, r24
    1214:	b0 01       	movw	r22, r0
    1216:	29 9f       	mul	r18, r25
    1218:	70 0d       	add	r23, r0
    121a:	38 9f       	mul	r19, r24
    121c:	70 0d       	add	r23, r0
    121e:	11 24       	eor	r1, r1
    1220:	66 5a       	subi	r22, 0xA6	; 166
    1222:	7f 4f       	sbci	r23, 0xFF	; 255
    1224:	88 27       	eor	r24, r24
    1226:	77 fd       	sbrc	r23, 7
    1228:	80 95       	com	r24
    122a:	98 2f       	mov	r25, r24
    122c:	0e 94 69 10 	call	0x20d2	; 0x20d2 <__floatsisf>
    1230:	7b 01       	movw	r14, r22
    1232:	8c 01       	movw	r16, r24
    1234:	b4 01       	movw	r22, r8
    1236:	88 27       	eor	r24, r24
    1238:	77 fd       	sbrc	r23, 7
    123a:	80 95       	com	r24
    123c:	98 2f       	mov	r25, r24
    123e:	0e 94 69 10 	call	0x20d2	; 0x20d2 <__floatsisf>
    1242:	20 e0       	ldi	r18, 0x00	; 0
    1244:	30 e0       	ldi	r19, 0x00	; 0
    1246:	40 e7       	ldi	r20, 0x70	; 112
    1248:	52 e4       	ldi	r21, 0x42	; 66
    124a:	0e 94 8d 0f 	call	0x1f1a	; 0x1f1a <__divsf3>
    124e:	20 e0       	ldi	r18, 0x00	; 0
    1250:	30 e0       	ldi	r19, 0x00	; 0
    1252:	40 ef       	ldi	r20, 0xF0	; 240
    1254:	51 ec       	ldi	r21, 0xC1	; 193
    1256:	0e 94 93 0e 	call	0x1d26	; 0x1d26 <__mulsf3>
    125a:	9b 01       	movw	r18, r22
    125c:	ac 01       	movw	r20, r24
    125e:	c8 01       	movw	r24, r16
    1260:	b7 01       	movw	r22, r14
    1262:	0e 94 66 0e 	call	0x1ccc	; 0x1ccc <__addsf3>
    1266:	2b ed       	ldi	r18, 0xDB	; 219
    1268:	3f e0       	ldi	r19, 0x0F	; 15
    126a:	49 e4       	ldi	r20, 0x49	; 73
    126c:	50 e4       	ldi	r21, 0x40	; 64
    126e:	0e 94 93 0e 	call	0x1d26	; 0x1d26 <__mulsf3>
    1272:	20 e0       	ldi	r18, 0x00	; 0
    1274:	30 e0       	ldi	r19, 0x00	; 0
    1276:	44 e3       	ldi	r20, 0x34	; 52
    1278:	53 e4       	ldi	r21, 0x43	; 67
    127a:	0e 94 8d 0f 	call	0x1f1a	; 0x1f1a <__divsf3>
    127e:	5b 01       	movw	r10, r22
    1280:	6c 01       	movw	r12, r24
    byte minutesLength = clockRadius - 15;

    double secondsAngle = (90 - prev_second * 6) * M_PI / 180.0;
    1282:	8a ef       	ldi	r24, 0xFA	; 250
    1284:	9f ef       	ldi	r25, 0xFF	; 255
    1286:	88 9e       	mul	r8, r24
    1288:	b0 01       	movw	r22, r0
    128a:	89 9e       	mul	r8, r25
    128c:	70 0d       	add	r23, r0
    128e:	98 9e       	mul	r9, r24
    1290:	70 0d       	add	r23, r0
    1292:	11 24       	eor	r1, r1
    1294:	66 5a       	subi	r22, 0xA6	; 166
    1296:	7f 4f       	sbci	r23, 0xFF	; 255
    1298:	88 27       	eor	r24, r24
    129a:	77 fd       	sbrc	r23, 7
    129c:	80 95       	com	r24
    129e:	98 2f       	mov	r25, r24
    12a0:	0e 94 69 10 	call	0x20d2	; 0x20d2 <__floatsisf>
    12a4:	2b ed       	ldi	r18, 0xDB	; 219
    12a6:	3f e0       	ldi	r19, 0x0F	; 15
    12a8:	49 e4       	ldi	r20, 0x49	; 73
    12aa:	50 e4       	ldi	r21, 0x40	; 64
    12ac:	0e 94 93 0e 	call	0x1d26	; 0x1d26 <__mulsf3>
    12b0:	20 e0       	ldi	r18, 0x00	; 0
    12b2:	30 e0       	ldi	r19, 0x00	; 0
    12b4:	44 e3       	ldi	r20, 0x34	; 52
    12b6:	53 e4       	ldi	r21, 0x43	; 67
    12b8:	0e 94 8d 0f 	call	0x1f1a	; 0x1f1a <__divsf3>
    12bc:	7b 01       	movw	r14, r22
    12be:	8c 01       	movw	r16, r24
    byte secondsLength = clockRadius - 7;

    Line(centerX, centerY, centerX + secondsLength * cos(secondsAngle), centerY - secondsLength * sin(secondsAngle), background_color);
    12c0:	c8 01       	movw	r24, r16
    12c2:	0e 94 1b 14 	call	0x2836	; 0x2836 <cos>
    12c6:	3b 01       	movw	r6, r22
    12c8:	4c 01       	movw	r8, r24
    12ca:	b7 01       	movw	r22, r14
    12cc:	c8 01       	movw	r24, r16
    12ce:	0e 94 79 14 	call	0x28f2	; 0x28f2 <sin>
    12d2:	7b 01       	movw	r14, r22
    12d4:	8c 01       	movw	r16, r24
    12d6:	c4 01       	movw	r24, r8
    12d8:	b3 01       	movw	r22, r6
    12da:	20 e0       	ldi	r18, 0x00	; 0
    12dc:	30 e0       	ldi	r19, 0x00	; 0
    12de:	48 e1       	ldi	r20, 0x18	; 24
    12e0:	52 e4       	ldi	r21, 0x42	; 66
    12e2:	0e 94 93 0e 	call	0x1d26	; 0x1d26 <__mulsf3>
    12e6:	20 e0       	ldi	r18, 0x00	; 0
    12e8:	30 e0       	ldi	r19, 0x00	; 0
    12ea:	40 e8       	ldi	r20, 0x80	; 128
    12ec:	52 e4       	ldi	r21, 0x42	; 66
    12ee:	0e 94 66 0e 	call	0x1ccc	; 0x1ccc <__addsf3>
    12f2:	0e 94 c7 10 	call	0x218e	; 0x218e <__fixsfsi>
    12f6:	3b 01       	movw	r6, r22
    12f8:	4c 01       	movw	r8, r24
    12fa:	c8 01       	movw	r24, r16
    12fc:	b7 01       	movw	r22, r14
    12fe:	20 e0       	ldi	r18, 0x00	; 0
    1300:	30 e0       	ldi	r19, 0x00	; 0
    1302:	48 e1       	ldi	r20, 0x18	; 24
    1304:	52 e4       	ldi	r21, 0x42	; 66
    1306:	0e 94 93 0e 	call	0x1d26	; 0x1d26 <__mulsf3>
    130a:	9b 01       	movw	r18, r22
    130c:	ac 01       	movw	r20, r24
    130e:	60 e0       	ldi	r22, 0x00	; 0
    1310:	70 e0       	ldi	r23, 0x00	; 0
    1312:	80 e7       	ldi	r24, 0x70	; 112
    1314:	92 e4       	ldi	r25, 0x42	; 66
    1316:	0e 94 35 0e 	call	0x1c6a	; 0x1c6a <__subsf3>
    131a:	0e 94 c7 10 	call	0x218e	; 0x218e <__fixsfsi>
    131e:	8b 01       	movw	r16, r22
    1320:	9c 01       	movw	r18, r24
    1322:	80 e4       	ldi	r24, 0x40	; 64
    1324:	90 e0       	ldi	r25, 0x00	; 0
    1326:	6c e3       	ldi	r22, 0x3C	; 60
    1328:	70 e0       	ldi	r23, 0x00	; 0
    132a:	a3 01       	movw	r20, r6
    132c:	98 01       	movw	r18, r16
    132e:	00 e0       	ldi	r16, 0x00	; 0
    1330:	10 e0       	ldi	r17, 0x00	; 0
    1332:	0e 94 c0 02 	call	0x580	; 0x580 <Line>

    Line(centerX, centerY, centerX + minutesLength * cos(minutesAngle), centerY - minutesLength * sin(minutesAngle), background_color);
    1336:	b5 01       	movw	r22, r10
    1338:	c6 01       	movw	r24, r12
    133a:	0e 94 1b 14 	call	0x2836	; 0x2836 <cos>
    133e:	3b 01       	movw	r6, r22
    1340:	4c 01       	movw	r8, r24
    1342:	b5 01       	movw	r22, r10
    1344:	c6 01       	movw	r24, r12
    1346:	0e 94 79 14 	call	0x28f2	; 0x28f2 <sin>
    134a:	7b 01       	movw	r14, r22
    134c:	8c 01       	movw	r16, r24
    134e:	c4 01       	movw	r24, r8
    1350:	b3 01       	movw	r22, r6
    1352:	20 e0       	ldi	r18, 0x00	; 0
    1354:	30 e0       	ldi	r19, 0x00	; 0
    1356:	40 ef       	ldi	r20, 0xF0	; 240
    1358:	51 e4       	ldi	r21, 0x41	; 65
    135a:	0e 94 93 0e 	call	0x1d26	; 0x1d26 <__mulsf3>
    135e:	20 e0       	ldi	r18, 0x00	; 0
    1360:	30 e0       	ldi	r19, 0x00	; 0
    1362:	40 e8       	ldi	r20, 0x80	; 128
    1364:	52 e4       	ldi	r21, 0x42	; 66
    1366:	0e 94 66 0e 	call	0x1ccc	; 0x1ccc <__addsf3>
    136a:	0e 94 c7 10 	call	0x218e	; 0x218e <__fixsfsi>
    136e:	5b 01       	movw	r10, r22
    1370:	6c 01       	movw	r12, r24
    1372:	c8 01       	movw	r24, r16
    1374:	b7 01       	movw	r22, r14
    1376:	20 e0       	ldi	r18, 0x00	; 0
    1378:	30 e0       	ldi	r19, 0x00	; 0
    137a:	40 ef       	ldi	r20, 0xF0	; 240
    137c:	51 e4       	ldi	r21, 0x41	; 65
    137e:	0e 94 93 0e 	call	0x1d26	; 0x1d26 <__mulsf3>
    1382:	9b 01       	movw	r18, r22
    1384:	ac 01       	movw	r20, r24
    1386:	60 e0       	ldi	r22, 0x00	; 0
    1388:	70 e0       	ldi	r23, 0x00	; 0
    138a:	80 e7       	ldi	r24, 0x70	; 112
    138c:	92 e4       	ldi	r25, 0x42	; 66
    138e:	0e 94 35 0e 	call	0x1c6a	; 0x1c6a <__subsf3>
    1392:	0e 94 c7 10 	call	0x218e	; 0x218e <__fixsfsi>
    1396:	8b 01       	movw	r16, r22
    1398:	9c 01       	movw	r18, r24
    139a:	80 e4       	ldi	r24, 0x40	; 64
    139c:	90 e0       	ldi	r25, 0x00	; 0
    139e:	6c e3       	ldi	r22, 0x3C	; 60
    13a0:	70 e0       	ldi	r23, 0x00	; 0
    13a2:	a5 01       	movw	r20, r10
    13a4:	98 01       	movw	r18, r16
    13a6:	00 e0       	ldi	r16, 0x00	; 0
    13a8:	10 e0       	ldi	r17, 0x00	; 0
    13aa:	0e 94 c0 02 	call	0x580	; 0x580 <Line>
}
    13ae:	1f 91       	pop	r17
    13b0:	0f 91       	pop	r16
    13b2:	ff 90       	pop	r15
    13b4:	ef 90       	pop	r14
    13b6:	df 90       	pop	r13
    13b8:	cf 90       	pop	r12
    13ba:	bf 90       	pop	r11
    13bc:	af 90       	pop	r10
    13be:	9f 90       	pop	r9
    13c0:	8f 90       	pop	r8
    13c2:	7f 90       	pop	r7
    13c4:	6f 90       	pop	r6
    13c6:	08 95       	ret

000013c8 <DrawClockFace>:
    return buttons;
}

//    

void DrawClockFace() {
    13c8:	2f 92       	push	r2
    13ca:	3f 92       	push	r3
    13cc:	4f 92       	push	r4
    13ce:	5f 92       	push	r5
    13d0:	6f 92       	push	r6
    13d2:	7f 92       	push	r7
    13d4:	8f 92       	push	r8
    13d6:	9f 92       	push	r9
    13d8:	af 92       	push	r10
    13da:	bf 92       	push	r11
    13dc:	cf 92       	push	r12
    13de:	df 92       	push	r13
    13e0:	ef 92       	push	r14
    13e2:	ff 92       	push	r15
    13e4:	0f 93       	push	r16
    13e6:	1f 93       	push	r17
    13e8:	df 93       	push	r29
    13ea:	cf 93       	push	r28
    13ec:	cd b7       	in	r28, 0x3d	; 61
    13ee:	de b7       	in	r29, 0x3e	; 62
    13f0:	28 97       	sbiw	r28, 0x08	; 8
    13f2:	0f b6       	in	r0, 0x3f	; 63
    13f4:	f8 94       	cli
    13f6:	de bf       	out	0x3e, r29	; 62
    13f8:	0f be       	out	0x3f, r0	; 63
    13fa:	cd bf       	out	0x3d, r28	; 61
    13fc:	22 24       	eor	r2, r2
    13fe:	33 24       	eor	r3, r3
     // 12    
     for (int i = 0; i < 12; ++i) { // 30    
        double angle = i * 30 * M_PI / 180.0;
    1400:	b1 01       	movw	r22, r2
    1402:	88 27       	eor	r24, r24
    1404:	77 fd       	sbrc	r23, 7
    1406:	80 95       	com	r24
    1408:	98 2f       	mov	r25, r24
    140a:	0e 94 69 10 	call	0x20d2	; 0x20d2 <__floatsisf>
    140e:	2b ed       	ldi	r18, 0xDB	; 219
    1410:	3f e0       	ldi	r19, 0x0F	; 15
    1412:	49 e4       	ldi	r20, 0x49	; 73
    1414:	50 e4       	ldi	r21, 0x40	; 64
    1416:	0e 94 93 0e 	call	0x1d26	; 0x1d26 <__mulsf3>
    141a:	20 e0       	ldi	r18, 0x00	; 0
    141c:	30 e0       	ldi	r19, 0x00	; 0
    141e:	44 e3       	ldi	r20, 0x34	; 52
    1420:	53 e4       	ldi	r21, 0x43	; 67
    1422:	0e 94 8d 0f 	call	0x1f1a	; 0x1f1a <__divsf3>
    1426:	7b 01       	movw	r14, r22
    1428:	8c 01       	movw	r16, r24
        byte x1 = centerX + (clockRadius - 5) * cos(angle);
    142a:	c8 01       	movw	r24, r16
    142c:	0e 94 1b 14 	call	0x2836	; 0x2836 <cos>
    1430:	69 83       	std	Y+1, r22	; 0x01
    1432:	7a 83       	std	Y+2, r23	; 0x02
    1434:	8b 83       	std	Y+3, r24	; 0x03
    1436:	9c 83       	std	Y+4, r25	; 0x04
        byte y1 = centerY - (clockRadius - 5) * sin(angle);
    1438:	b7 01       	movw	r22, r14
    143a:	c8 01       	movw	r24, r16
    143c:	0e 94 79 14 	call	0x28f2	; 0x28f2 <sin>
    1440:	4b 01       	movw	r8, r22
    1442:	5c 01       	movw	r10, r24
        byte x2 = centerX + clockRadius * cos(angle);
        byte y2 = centerY - clockRadius * sin(angle);
        Line(x1, y1, x2, y2, LIME); //    
    1444:	69 81       	ldd	r22, Y+1	; 0x01
    1446:	7a 81       	ldd	r23, Y+2	; 0x02
    1448:	8b 81       	ldd	r24, Y+3	; 0x03
    144a:	9c 81       	ldd	r25, Y+4	; 0x04
    144c:	20 e0       	ldi	r18, 0x00	; 0
    144e:	30 e0       	ldi	r19, 0x00	; 0
    1450:	40 e2       	ldi	r20, 0x20	; 32
    1452:	52 e4       	ldi	r21, 0x42	; 66
    1454:	0e 94 93 0e 	call	0x1d26	; 0x1d26 <__mulsf3>
    1458:	20 e0       	ldi	r18, 0x00	; 0
    145a:	30 e0       	ldi	r19, 0x00	; 0
    145c:	40 e8       	ldi	r20, 0x80	; 128
    145e:	52 e4       	ldi	r21, 0x42	; 66
    1460:	0e 94 66 0e 	call	0x1ccc	; 0x1ccc <__addsf3>
    1464:	0e 94 bd 0c 	call	0x197a	; 0x197a <__fixunssfsi>
    1468:	6d 83       	std	Y+5, r22	; 0x05
    146a:	7e 83       	std	Y+6, r23	; 0x06
    146c:	8f 83       	std	Y+7, r24	; 0x07
    146e:	98 87       	std	Y+8, r25	; 0x08
    1470:	c5 01       	movw	r24, r10
    1472:	b4 01       	movw	r22, r8
    1474:	20 e0       	ldi	r18, 0x00	; 0
    1476:	30 e0       	ldi	r19, 0x00	; 0
    1478:	40 e2       	ldi	r20, 0x20	; 32
    147a:	52 e4       	ldi	r21, 0x42	; 66
    147c:	0e 94 93 0e 	call	0x1d26	; 0x1d26 <__mulsf3>
    1480:	9b 01       	movw	r18, r22
    1482:	ac 01       	movw	r20, r24
    1484:	60 e0       	ldi	r22, 0x00	; 0
    1486:	70 e0       	ldi	r23, 0x00	; 0
    1488:	80 e7       	ldi	r24, 0x70	; 112
    148a:	92 e4       	ldi	r25, 0x42	; 66
    148c:	0e 94 35 0e 	call	0x1c6a	; 0x1c6a <__subsf3>
    1490:	0e 94 bd 0c 	call	0x197a	; 0x197a <__fixunssfsi>
    1494:	2b 01       	movw	r4, r22
    1496:	3c 01       	movw	r6, r24
    1498:	69 81       	ldd	r22, Y+1	; 0x01
    149a:	7a 81       	ldd	r23, Y+2	; 0x02
    149c:	8b 81       	ldd	r24, Y+3	; 0x03
    149e:	9c 81       	ldd	r25, Y+4	; 0x04
    14a0:	20 e0       	ldi	r18, 0x00	; 0
    14a2:	30 e0       	ldi	r19, 0x00	; 0
    14a4:	44 e3       	ldi	r20, 0x34	; 52
    14a6:	52 e4       	ldi	r21, 0x42	; 66
    14a8:	0e 94 93 0e 	call	0x1d26	; 0x1d26 <__mulsf3>
    14ac:	20 e0       	ldi	r18, 0x00	; 0
    14ae:	30 e0       	ldi	r19, 0x00	; 0
    14b0:	40 e8       	ldi	r20, 0x80	; 128
    14b2:	52 e4       	ldi	r21, 0x42	; 66
    14b4:	0e 94 66 0e 	call	0x1ccc	; 0x1ccc <__addsf3>
    14b8:	0e 94 bd 0c 	call	0x197a	; 0x197a <__fixunssfsi>
    14bc:	6b 01       	movw	r12, r22
    14be:	7c 01       	movw	r14, r24
    14c0:	c5 01       	movw	r24, r10
    14c2:	b4 01       	movw	r22, r8
    14c4:	20 e0       	ldi	r18, 0x00	; 0
    14c6:	30 e0       	ldi	r19, 0x00	; 0
    14c8:	44 e3       	ldi	r20, 0x34	; 52
    14ca:	52 e4       	ldi	r21, 0x42	; 66
    14cc:	0e 94 93 0e 	call	0x1d26	; 0x1d26 <__mulsf3>
    14d0:	9b 01       	movw	r18, r22
    14d2:	ac 01       	movw	r20, r24
    14d4:	60 e0       	ldi	r22, 0x00	; 0
    14d6:	70 e0       	ldi	r23, 0x00	; 0
    14d8:	80 e7       	ldi	r24, 0x70	; 112
    14da:	92 e4       	ldi	r25, 0x42	; 66
    14dc:	0e 94 35 0e 	call	0x1c6a	; 0x1c6a <__subsf3>
    14e0:	0e 94 bd 0c 	call	0x197a	; 0x197a <__fixunssfsi>
    14e4:	8b 01       	movw	r16, r22
    14e6:	9c 01       	movw	r18, r24
    14e8:	8d 81       	ldd	r24, Y+5	; 0x05
    14ea:	90 e0       	ldi	r25, 0x00	; 0
    14ec:	64 2d       	mov	r22, r4
    14ee:	70 e0       	ldi	r23, 0x00	; 0
    14f0:	4c 2d       	mov	r20, r12
    14f2:	50 e0       	ldi	r21, 0x00	; 0
    14f4:	20 2f       	mov	r18, r16
    14f6:	30 e0       	ldi	r19, 0x00	; 0
    14f8:	00 ee       	ldi	r16, 0xE0	; 224
    14fa:	17 e0       	ldi	r17, 0x07	; 7
    14fc:	0e 94 c0 02 	call	0x580	; 0x580 <Line>
    1500:	8e e1       	ldi	r24, 0x1E	; 30
    1502:	90 e0       	ldi	r25, 0x00	; 0
    1504:	28 0e       	add	r2, r24
    1506:	39 1e       	adc	r3, r25

//    

void DrawClockFace() {
     // 12    
     for (int i = 0; i < 12; ++i) { // 30    
    1508:	98 e6       	ldi	r25, 0x68	; 104
    150a:	29 16       	cp	r2, r25
    150c:	91 e0       	ldi	r25, 0x01	; 1
    150e:	39 06       	cpc	r3, r25
    1510:	09 f0       	breq	.+2      	; 0x1514 <DrawClockFace+0x14c>
    1512:	76 cf       	rjmp	.-276    	; 0x1400 <DrawClockFace+0x38>
        byte y1 = centerY - (clockRadius - 5) * sin(angle);
        byte x2 = centerX + clockRadius * cos(angle);
        byte y2 = centerY - clockRadius * sin(angle);
        Line(x1, y1, x2, y2, LIME); //    
    }
}
    1514:	28 96       	adiw	r28, 0x08	; 8
    1516:	0f b6       	in	r0, 0x3f	; 63
    1518:	f8 94       	cli
    151a:	de bf       	out	0x3e, r29	; 62
    151c:	0f be       	out	0x3f, r0	; 63
    151e:	cd bf       	out	0x3d, r28	; 61
    1520:	cf 91       	pop	r28
    1522:	df 91       	pop	r29
    1524:	1f 91       	pop	r17
    1526:	0f 91       	pop	r16
    1528:	ff 90       	pop	r15
    152a:	ef 90       	pop	r14
    152c:	df 90       	pop	r13
    152e:	cf 90       	pop	r12
    1530:	bf 90       	pop	r11
    1532:	af 90       	pop	r10
    1534:	9f 90       	pop	r9
    1536:	8f 90       	pop	r8
    1538:	7f 90       	pop	r7
    153a:	6f 90       	pop	r6
    153c:	5f 90       	pop	r5
    153e:	4f 90       	pop	r4
    1540:	3f 90       	pop	r3
    1542:	2f 90       	pop	r2
    1544:	08 95       	ret

00001546 <PixelTest>:
	WriteString(str,WHITE);
}
//  ---------------------------------------------------------------------------//  TEST ROUTINES
void PixelTest()
// draws 4000 pixels on the screen
{
    1546:	0f 93       	push	r16
    1548:	1f 93       	push	r17
    154a:	cf 93       	push	r28
    154c:	df 93       	push	r29
	ClearScreen();
    154e:	0e 94 60 02 	call	0x4c0	; 0x4c0 <ClearScreen>
    1552:	c0 ea       	ldi	r28, 0xA0	; 160
    1554:	df e0       	ldi	r29, 0x0F	; 15
	for (int i=4000; i>0; i--)  // do a whole bunch: 
	{
		int x = rand() % XMAX;  // random x coordinate
    1556:	0e 94 ea 13 	call	0x27d4	; 0x27d4 <rand>
    155a:	8c 01       	movw	r16, r24
		int y = rand() % YMAX;  // random y coordinate
    155c:	0e 94 ea 13 	call	0x27d4	; 0x27d4 <rand>
    1560:	9c 01       	movw	r18, r24
		DrawPixel(x,y,YELLOW);  // draw pixel at x,y
    1562:	c8 01       	movw	r24, r16
    1564:	60 e8       	ldi	r22, 0x80	; 128
    1566:	70 e0       	ldi	r23, 0x00	; 0
    1568:	0e 94 3b 13 	call	0x2676	; 0x2676 <__divmodhi4>
    156c:	fc 01       	movw	r30, r24
    156e:	31 97       	sbiw	r30, 0x01	; 1
    1570:	c9 01       	movw	r24, r18
    1572:	60 ea       	ldi	r22, 0xA0	; 160
    1574:	70 e0       	ldi	r23, 0x00	; 0
    1576:	0e 94 3b 13 	call	0x2676	; 0x2676 <__divmodhi4>
    157a:	bc 01       	movw	r22, r24
    157c:	61 50       	subi	r22, 0x01	; 1
    157e:	70 40       	sbci	r23, 0x00	; 0
    1580:	8e 2f       	mov	r24, r30
    1582:	40 ee       	ldi	r20, 0xE0	; 224
    1584:	5f ef       	ldi	r21, 0xFF	; 255
    1586:	0e 94 7f 02 	call	0x4fe	; 0x4fe <DrawPixel>
//  ---------------------------------------------------------------------------//  TEST ROUTINES
void PixelTest()
// draws 4000 pixels on the screen
{
	ClearScreen();
	for (int i=4000; i>0; i--)  // do a whole bunch: 
    158a:	21 97       	sbiw	r28, 0x01	; 1
    158c:	21 f7       	brne	.-56     	; 0x1556 <PixelTest+0x10>
	{
		int x = rand() % XMAX;  // random x coordinate
		int y = rand() % YMAX;  // random y coordinate
		DrawPixel(x,y,YELLOW);  // draw pixel at x,y
	}
}
    158e:	df 91       	pop	r29
    1590:	cf 91       	pop	r28
    1592:	1f 91       	pop	r17
    1594:	0f 91       	pop	r16
    1596:	08 95       	ret

00001598 <WriteHex>:
	itoa(i,str,10);  // convert to string, base 10
	WriteString(str,WHITE); 
}
void WriteHex(int i)
// writes hexadecimal value of integer i at current cursor position
{
    1598:	0f 93       	push	r16
    159a:	1f 93       	push	r17
    159c:	df 93       	push	r29
    159e:	cf 93       	push	r28
    15a0:	cd b7       	in	r28, 0x3d	; 61
    15a2:	de b7       	in	r29, 0x3e	; 62
    15a4:	28 97       	sbiw	r28, 0x08	; 8
    15a6:	0f b6       	in	r0, 0x3f	; 63
    15a8:	f8 94       	cli
    15aa:	de bf       	out	0x3e, r29	; 62
    15ac:	0f be       	out	0x3f, r0	; 63
    15ae:	cd bf       	out	0x3d, r28	; 61
	char str[8];  // buffer for string result
	itoa(i,str,16);  // convert to base 16 (hex)
    15b0:	8e 01       	movw	r16, r28
    15b2:	0f 5f       	subi	r16, 0xFF	; 255
    15b4:	1f 4f       	sbci	r17, 0xFF	; 255
    15b6:	b8 01       	movw	r22, r16
    15b8:	40 e1       	ldi	r20, 0x10	; 16
    15ba:	50 e0       	ldi	r21, 0x00	; 0
    15bc:	0e 94 fa 13 	call	0x27f4	; 0x27f4 <itoa>
	WriteString(str,WHITE);
    15c0:	c8 01       	movw	r24, r16
    15c2:	6f ef       	ldi	r22, 0xFF	; 255
    15c4:	7f ef       	ldi	r23, 0xFF	; 255
    15c6:	0e 94 39 08 	call	0x1072	; 0x1072 <WriteString>
}
    15ca:	28 96       	adiw	r28, 0x08	; 8
    15cc:	0f b6       	in	r0, 0x3f	; 63
    15ce:	f8 94       	cli
    15d0:	de bf       	out	0x3e, r29	; 62
    15d2:	0f be       	out	0x3f, r0	; 63
    15d4:	cd bf       	out	0x3d, r28	; 61
    15d6:	cf 91       	pop	r28
    15d8:	df 91       	pop	r29
    15da:	1f 91       	pop	r17
    15dc:	0f 91       	pop	r16
    15de:	08 95       	ret

000015e0 <WriteInt>:
	for (;*text;text++)  // for all non-nul chars
	WriteChar(*text,color);  // write the char
}
void WriteInt(int i)
// writes integer i at current cursor position
{
    15e0:	0f 93       	push	r16
    15e2:	1f 93       	push	r17
    15e4:	df 93       	push	r29
    15e6:	cf 93       	push	r28
    15e8:	cd b7       	in	r28, 0x3d	; 61
    15ea:	de b7       	in	r29, 0x3e	; 62
    15ec:	28 97       	sbiw	r28, 0x08	; 8
    15ee:	0f b6       	in	r0, 0x3f	; 63
    15f0:	f8 94       	cli
    15f2:	de bf       	out	0x3e, r29	; 62
    15f4:	0f be       	out	0x3f, r0	; 63
    15f6:	cd bf       	out	0x3d, r28	; 61
	char str[8];  // buffer for string result
	itoa(i,str,10);  // convert to string, base 10
    15f8:	8e 01       	movw	r16, r28
    15fa:	0f 5f       	subi	r16, 0xFF	; 255
    15fc:	1f 4f       	sbci	r17, 0xFF	; 255
    15fe:	b8 01       	movw	r22, r16
    1600:	4a e0       	ldi	r20, 0x0A	; 10
    1602:	50 e0       	ldi	r21, 0x00	; 0
    1604:	0e 94 fa 13 	call	0x27f4	; 0x27f4 <itoa>
	WriteString(str,WHITE); 
    1608:	c8 01       	movw	r24, r16
    160a:	6f ef       	ldi	r22, 0xFF	; 255
    160c:	7f ef       	ldi	r23, 0xFF	; 255
    160e:	0e 94 39 08 	call	0x1072	; 0x1072 <WriteString>
}
    1612:	28 96       	adiw	r28, 0x08	; 8
    1614:	0f b6       	in	r0, 0x3f	; 63
    1616:	f8 94       	cli
    1618:	de bf       	out	0x3e, r29	; 62
    161a:	0f be       	out	0x3f, r0	; 63
    161c:	cd bf       	out	0x3d, r28	; 61
    161e:	cf 91       	pop	r28
    1620:	df 91       	pop	r29
    1622:	1f 91       	pop	r17
    1624:	0f 91       	pop	r16
    1626:	08 95       	ret

00001628 <write_time>:
    write_time();
}

//     

void write_time() {
    1628:	1f 93       	push	r17
    if (minutes < 10) {
    162a:	80 91 76 01 	lds	r24, 0x0176
    162e:	8a 30       	cpi	r24, 0x0A	; 10
    1630:	80 f4       	brcc	.+32     	; 0x1652 <write_time+0x2a>
// Total number of characters in landscape mode = 26x16 = 416. 
byte curX,curY;  // current x & y cursor position
void GotoXY (byte x,byte y)
// position cursor on character x,y grid, where 0<x<20, 0<y<19.
{
	curX = x;
    1632:	8b e0       	ldi	r24, 0x0B	; 11
    1634:	80 93 7a 01 	sts	0x017A, r24
	curY = y;
    1638:	1f e0       	ldi	r17, 0x0F	; 15
    163a:	10 93 7b 01 	sts	0x017B, r17
        GotoXY(11, 15);
        WriteInt(0);
    163e:	80 e0       	ldi	r24, 0x00	; 0
    1640:	90 e0       	ldi	r25, 0x00	; 0
    1642:	0e 94 f0 0a 	call	0x15e0	; 0x15e0 <WriteInt>
// Total number of characters in landscape mode = 26x16 = 416. 
byte curX,curY;  // current x & y cursor position
void GotoXY (byte x,byte y)
// position cursor on character x,y grid, where 0<x<20, 0<y<19.
{
	curX = x;
    1646:	8c e0       	ldi	r24, 0x0C	; 12
    1648:	80 93 7a 01 	sts	0x017A, r24
	curY = y;
    164c:	10 93 7b 01 	sts	0x017B, r17
    1650:	06 c0       	rjmp	.+12     	; 0x165e <write_time+0x36>
// Total number of characters in landscape mode = 26x16 = 416. 
byte curX,curY;  // current x & y cursor position
void GotoXY (byte x,byte y)
// position cursor on character x,y grid, where 0<x<20, 0<y<19.
{
	curX = x;
    1652:	8b e0       	ldi	r24, 0x0B	; 11
    1654:	80 93 7a 01 	sts	0x017A, r24
	curY = y;
    1658:	8f e0       	ldi	r24, 0x0F	; 15
    165a:	80 93 7b 01 	sts	0x017B, r24
    }
    else {
        GotoXY(11, 15);
    }

    WriteInt(minutes);
    165e:	80 91 76 01 	lds	r24, 0x0176
    1662:	90 e0       	ldi	r25, 0x00	; 0
    1664:	0e 94 f0 0a 	call	0x15e0	; 0x15e0 <WriteInt>
// Total number of characters in landscape mode = 26x16 = 416. 
byte curX,curY;  // current x & y cursor position
void GotoXY (byte x,byte y)
// position cursor on character x,y grid, where 0<x<20, 0<y<19.
{
	curX = x;
    1668:	8d e0       	ldi	r24, 0x0D	; 13
    166a:	80 93 7a 01 	sts	0x017A, r24
	curY = y;
    166e:	1f e0       	ldi	r17, 0x0F	; 15
    1670:	10 93 7b 01 	sts	0x017B, r17
	GotoXY(13,15);
	WriteString(":", LIME);
    1674:	80 e6       	ldi	r24, 0x60	; 96
    1676:	90 e0       	ldi	r25, 0x00	; 0
    1678:	60 ee       	ldi	r22, 0xE0	; 224
    167a:	77 e0       	ldi	r23, 0x07	; 7
    167c:	0e 94 39 08 	call	0x1072	; 0x1072 <WriteString>
// Total number of characters in landscape mode = 26x16 = 416. 
byte curX,curY;  // current x & y cursor position
void GotoXY (byte x,byte y)
// position cursor on character x,y grid, where 0<x<20, 0<y<19.
{
	curX = x;
    1680:	85 e0       	ldi	r24, 0x05	; 5
    1682:	80 93 7a 01 	sts	0x017A, r24
	curY = y;
    1686:	10 93 7b 01 	sts	0x017B, r17
	GotoXY(5,15);
	WriteString("Time: ", LIME);
    168a:	82 e6       	ldi	r24, 0x62	; 98
    168c:	90 e0       	ldi	r25, 0x00	; 0
    168e:	60 ee       	ldi	r22, 0xE0	; 224
    1690:	77 e0       	ldi	r23, 0x07	; 7
    1692:	0e 94 39 08 	call	0x1072	; 0x1072 <WriteString>
    if (seconds < 10) {
    1696:	80 91 77 01 	lds	r24, 0x0177
    169a:	8a 30       	cpi	r24, 0x0A	; 10
    169c:	60 f4       	brcc	.+24     	; 0x16b6 <write_time+0x8e>
// Total number of characters in landscape mode = 26x16 = 416. 
byte curX,curY;  // current x & y cursor position
void GotoXY (byte x,byte y)
// position cursor on character x,y grid, where 0<x<20, 0<y<19.
{
	curX = x;
    169e:	8e e0       	ldi	r24, 0x0E	; 14
    16a0:	80 93 7a 01 	sts	0x017A, r24
	curY = y;
    16a4:	10 93 7b 01 	sts	0x017B, r17
        GotoXY(14, 15);
        WriteInt(0);
    16a8:	80 e0       	ldi	r24, 0x00	; 0
    16aa:	90 e0       	ldi	r25, 0x00	; 0
    16ac:	0e 94 f0 0a 	call	0x15e0	; 0x15e0 <WriteInt>
// Total number of characters in landscape mode = 26x16 = 416. 
byte curX,curY;  // current x & y cursor position
void GotoXY (byte x,byte y)
// position cursor on character x,y grid, where 0<x<20, 0<y<19.
{
	curX = x;
    16b0:	10 93 7a 01 	sts	0x017A, r17
    16b4:	03 c0       	rjmp	.+6      	; 0x16bc <write_time+0x94>
	curY = y;
    16b6:	8e e0       	ldi	r24, 0x0E	; 14
    16b8:	80 93 7a 01 	sts	0x017A, r24
    16bc:	10 93 7b 01 	sts	0x017B, r17
    }
    else {
        GotoXY(14, 15);
    }

    WriteInt(seconds);
    16c0:	80 91 77 01 	lds	r24, 0x0177
    16c4:	90 e0       	ldi	r25, 0x00	; 0
    16c6:	0e 94 f0 0a 	call	0x15e0	; 0x15e0 <WriteInt>
}
    16ca:	1f 91       	pop	r17
    16cc:	08 95       	ret

000016ce <draw_time>:
    Line(centerX, centerY, centerX + minutesLength * cos(minutesAngle), centerY - minutesLength * sin(minutesAngle), background_color);
}

//    

void draw_time() {
    16ce:	4f 92       	push	r4
    16d0:	5f 92       	push	r5
    16d2:	6f 92       	push	r6
    16d4:	7f 92       	push	r7
    16d6:	8f 92       	push	r8
    16d8:	9f 92       	push	r9
    16da:	af 92       	push	r10
    16dc:	bf 92       	push	r11
    16de:	cf 92       	push	r12
    16e0:	df 92       	push	r13
    16e2:	ef 92       	push	r14
    16e4:	ff 92       	push	r15
    16e6:	0f 93       	push	r16
    16e8:	1f 93       	push	r17
    double minutesAngle = (90 - (minutes % 12) * 30 - (seconds / 60.0) * 30) * M_PI / 180.0;
    16ea:	50 90 76 01 	lds	r5, 0x0176
    16ee:	40 90 77 01 	lds	r4, 0x0177
    16f2:	84 2c       	mov	r8, r4
    16f4:	99 24       	eor	r9, r9
    16f6:	85 2d       	mov	r24, r5
    16f8:	6c e0       	ldi	r22, 0x0C	; 12
    16fa:	0e 94 2f 13 	call	0x265e	; 0x265e <__udivmodqi4>
    16fe:	29 2f       	mov	r18, r25
    1700:	30 e0       	ldi	r19, 0x00	; 0
    1702:	82 ee       	ldi	r24, 0xE2	; 226
    1704:	9f ef       	ldi	r25, 0xFF	; 255
    1706:	28 9f       	mul	r18, r24
    1708:	b0 01       	movw	r22, r0
    170a:	29 9f       	mul	r18, r25
    170c:	70 0d       	add	r23, r0
    170e:	38 9f       	mul	r19, r24
    1710:	70 0d       	add	r23, r0
    1712:	11 24       	eor	r1, r1
    1714:	66 5a       	subi	r22, 0xA6	; 166
    1716:	7f 4f       	sbci	r23, 0xFF	; 255
    1718:	88 27       	eor	r24, r24
    171a:	77 fd       	sbrc	r23, 7
    171c:	80 95       	com	r24
    171e:	98 2f       	mov	r25, r24
    1720:	0e 94 69 10 	call	0x20d2	; 0x20d2 <__floatsisf>
    1724:	7b 01       	movw	r14, r22
    1726:	8c 01       	movw	r16, r24
    1728:	b4 01       	movw	r22, r8
    172a:	88 27       	eor	r24, r24
    172c:	77 fd       	sbrc	r23, 7
    172e:	80 95       	com	r24
    1730:	98 2f       	mov	r25, r24
    1732:	0e 94 69 10 	call	0x20d2	; 0x20d2 <__floatsisf>
    1736:	20 e0       	ldi	r18, 0x00	; 0
    1738:	30 e0       	ldi	r19, 0x00	; 0
    173a:	40 e7       	ldi	r20, 0x70	; 112
    173c:	52 e4       	ldi	r21, 0x42	; 66
    173e:	0e 94 8d 0f 	call	0x1f1a	; 0x1f1a <__divsf3>
    1742:	20 e0       	ldi	r18, 0x00	; 0
    1744:	30 e0       	ldi	r19, 0x00	; 0
    1746:	40 ef       	ldi	r20, 0xF0	; 240
    1748:	51 ec       	ldi	r21, 0xC1	; 193
    174a:	0e 94 93 0e 	call	0x1d26	; 0x1d26 <__mulsf3>
    174e:	9b 01       	movw	r18, r22
    1750:	ac 01       	movw	r20, r24
    1752:	c8 01       	movw	r24, r16
    1754:	b7 01       	movw	r22, r14
    1756:	0e 94 66 0e 	call	0x1ccc	; 0x1ccc <__addsf3>
    175a:	2b ed       	ldi	r18, 0xDB	; 219
    175c:	3f e0       	ldi	r19, 0x0F	; 15
    175e:	49 e4       	ldi	r20, 0x49	; 73
    1760:	50 e4       	ldi	r21, 0x40	; 64
    1762:	0e 94 93 0e 	call	0x1d26	; 0x1d26 <__mulsf3>
    1766:	20 e0       	ldi	r18, 0x00	; 0
    1768:	30 e0       	ldi	r19, 0x00	; 0
    176a:	44 e3       	ldi	r20, 0x34	; 52
    176c:	53 e4       	ldi	r21, 0x43	; 67
    176e:	0e 94 8d 0f 	call	0x1f1a	; 0x1f1a <__divsf3>
    1772:	5b 01       	movw	r10, r22
    1774:	6c 01       	movw	r12, r24
    byte minutesLength = clockRadius - 15; //     

    double secondsAngle = (90 - seconds * 6) * M_PI / 180.0;
    1776:	8a ef       	ldi	r24, 0xFA	; 250
    1778:	9f ef       	ldi	r25, 0xFF	; 255
    177a:	88 9e       	mul	r8, r24
    177c:	b0 01       	movw	r22, r0
    177e:	89 9e       	mul	r8, r25
    1780:	70 0d       	add	r23, r0
    1782:	98 9e       	mul	r9, r24
    1784:	70 0d       	add	r23, r0
    1786:	11 24       	eor	r1, r1
    1788:	66 5a       	subi	r22, 0xA6	; 166
    178a:	7f 4f       	sbci	r23, 0xFF	; 255
    178c:	88 27       	eor	r24, r24
    178e:	77 fd       	sbrc	r23, 7
    1790:	80 95       	com	r24
    1792:	98 2f       	mov	r25, r24
    1794:	0e 94 69 10 	call	0x20d2	; 0x20d2 <__floatsisf>
    1798:	2b ed       	ldi	r18, 0xDB	; 219
    179a:	3f e0       	ldi	r19, 0x0F	; 15
    179c:	49 e4       	ldi	r20, 0x49	; 73
    179e:	50 e4       	ldi	r21, 0x40	; 64
    17a0:	0e 94 93 0e 	call	0x1d26	; 0x1d26 <__mulsf3>
    17a4:	20 e0       	ldi	r18, 0x00	; 0
    17a6:	30 e0       	ldi	r19, 0x00	; 0
    17a8:	44 e3       	ldi	r20, 0x34	; 52
    17aa:	53 e4       	ldi	r21, 0x43	; 67
    17ac:	0e 94 8d 0f 	call	0x1f1a	; 0x1f1a <__divsf3>
    17b0:	7b 01       	movw	r14, r22
    17b2:	8c 01       	movw	r16, r24
    byte secondsLength = clockRadius - 7; //  
	//  
    Line(centerX, centerY, centerX + secondsLength * cos(secondsAngle), centerY - secondsLength * sin(secondsAngle), seconds_color);
    17b4:	c8 01       	movw	r24, r16
    17b6:	0e 94 1b 14 	call	0x2836	; 0x2836 <cos>
    17ba:	3b 01       	movw	r6, r22
    17bc:	4c 01       	movw	r8, r24
    17be:	b7 01       	movw	r22, r14
    17c0:	c8 01       	movw	r24, r16
    17c2:	0e 94 79 14 	call	0x28f2	; 0x28f2 <sin>
    17c6:	7b 01       	movw	r14, r22
    17c8:	8c 01       	movw	r16, r24
    17ca:	c4 01       	movw	r24, r8
    17cc:	b3 01       	movw	r22, r6
    17ce:	20 e0       	ldi	r18, 0x00	; 0
    17d0:	30 e0       	ldi	r19, 0x00	; 0
    17d2:	48 e1       	ldi	r20, 0x18	; 24
    17d4:	52 e4       	ldi	r21, 0x42	; 66
    17d6:	0e 94 93 0e 	call	0x1d26	; 0x1d26 <__mulsf3>
    17da:	20 e0       	ldi	r18, 0x00	; 0
    17dc:	30 e0       	ldi	r19, 0x00	; 0
    17de:	40 e8       	ldi	r20, 0x80	; 128
    17e0:	52 e4       	ldi	r21, 0x42	; 66
    17e2:	0e 94 66 0e 	call	0x1ccc	; 0x1ccc <__addsf3>
    17e6:	0e 94 c7 10 	call	0x218e	; 0x218e <__fixsfsi>
    17ea:	3b 01       	movw	r6, r22
    17ec:	4c 01       	movw	r8, r24
    17ee:	c8 01       	movw	r24, r16
    17f0:	b7 01       	movw	r22, r14
    17f2:	20 e0       	ldi	r18, 0x00	; 0
    17f4:	30 e0       	ldi	r19, 0x00	; 0
    17f6:	48 e1       	ldi	r20, 0x18	; 24
    17f8:	52 e4       	ldi	r21, 0x42	; 66
    17fa:	0e 94 93 0e 	call	0x1d26	; 0x1d26 <__mulsf3>
    17fe:	9b 01       	movw	r18, r22
    1800:	ac 01       	movw	r20, r24
    1802:	60 e0       	ldi	r22, 0x00	; 0
    1804:	70 e0       	ldi	r23, 0x00	; 0
    1806:	80 e7       	ldi	r24, 0x70	; 112
    1808:	92 e4       	ldi	r25, 0x42	; 66
    180a:	0e 94 35 0e 	call	0x1c6a	; 0x1c6a <__subsf3>
    180e:	0e 94 c7 10 	call	0x218e	; 0x218e <__fixsfsi>
    1812:	8b 01       	movw	r16, r22
    1814:	9c 01       	movw	r18, r24
    1816:	80 e4       	ldi	r24, 0x40	; 64
    1818:	90 e0       	ldi	r25, 0x00	; 0
    181a:	6c e3       	ldi	r22, 0x3C	; 60
    181c:	70 e0       	ldi	r23, 0x00	; 0
    181e:	a3 01       	movw	r20, r6
    1820:	98 01       	movw	r18, r16
    1822:	0f ef       	ldi	r16, 0xFF	; 255
    1824:	1f ef       	ldi	r17, 0xFF	; 255
    1826:	0e 94 c0 02 	call	0x580	; 0x580 <Line>

    Line(centerX, centerY, centerX + minutesLength * cos(minutesAngle), centerY - minutesLength * sin(minutesAngle), minutes_color);
    182a:	b5 01       	movw	r22, r10
    182c:	c6 01       	movw	r24, r12
    182e:	0e 94 1b 14 	call	0x2836	; 0x2836 <cos>
    1832:	3b 01       	movw	r6, r22
    1834:	4c 01       	movw	r8, r24
    1836:	b5 01       	movw	r22, r10
    1838:	c6 01       	movw	r24, r12
    183a:	0e 94 79 14 	call	0x28f2	; 0x28f2 <sin>
    183e:	7b 01       	movw	r14, r22
    1840:	8c 01       	movw	r16, r24
    1842:	c4 01       	movw	r24, r8
    1844:	b3 01       	movw	r22, r6
    1846:	20 e0       	ldi	r18, 0x00	; 0
    1848:	30 e0       	ldi	r19, 0x00	; 0
    184a:	40 ef       	ldi	r20, 0xF0	; 240
    184c:	51 e4       	ldi	r21, 0x41	; 65
    184e:	0e 94 93 0e 	call	0x1d26	; 0x1d26 <__mulsf3>
    1852:	20 e0       	ldi	r18, 0x00	; 0
    1854:	30 e0       	ldi	r19, 0x00	; 0
    1856:	40 e8       	ldi	r20, 0x80	; 128
    1858:	52 e4       	ldi	r21, 0x42	; 66
    185a:	0e 94 66 0e 	call	0x1ccc	; 0x1ccc <__addsf3>
    185e:	0e 94 c7 10 	call	0x218e	; 0x218e <__fixsfsi>
    1862:	5b 01       	movw	r10, r22
    1864:	6c 01       	movw	r12, r24
    1866:	c8 01       	movw	r24, r16
    1868:	b7 01       	movw	r22, r14
    186a:	20 e0       	ldi	r18, 0x00	; 0
    186c:	30 e0       	ldi	r19, 0x00	; 0
    186e:	40 ef       	ldi	r20, 0xF0	; 240
    1870:	51 e4       	ldi	r21, 0x41	; 65
    1872:	0e 94 93 0e 	call	0x1d26	; 0x1d26 <__mulsf3>
    1876:	9b 01       	movw	r18, r22
    1878:	ac 01       	movw	r20, r24
    187a:	60 e0       	ldi	r22, 0x00	; 0
    187c:	70 e0       	ldi	r23, 0x00	; 0
    187e:	80 e7       	ldi	r24, 0x70	; 112
    1880:	92 e4       	ldi	r25, 0x42	; 66
    1882:	0e 94 35 0e 	call	0x1c6a	; 0x1c6a <__subsf3>
    1886:	0e 94 c7 10 	call	0x218e	; 0x218e <__fixsfsi>
    188a:	8b 01       	movw	r16, r22
    188c:	9c 01       	movw	r18, r24
    188e:	80 e4       	ldi	r24, 0x40	; 64
    1890:	90 e0       	ldi	r25, 0x00	; 0
    1892:	6c e3       	ldi	r22, 0x3C	; 60
    1894:	70 e0       	ldi	r23, 0x00	; 0
    1896:	a5 01       	movw	r20, r10
    1898:	98 01       	movw	r18, r16
    189a:	00 ee       	ldi	r16, 0xE0	; 224
    189c:	17 e0       	ldi	r17, 0x07	; 7
    189e:	0e 94 c0 02 	call	0x580	; 0x580 <Line>

    prev_minute = minutes;
    18a2:	50 92 78 01 	sts	0x0178, r5
    prev_second = seconds;
    18a6:	40 92 79 01 	sts	0x0179, r4

    write_time();
    18aa:	0e 94 14 0b 	call	0x1628	; 0x1628 <write_time>
}
    18ae:	1f 91       	pop	r17
    18b0:	0f 91       	pop	r16
    18b2:	ff 90       	pop	r15
    18b4:	ef 90       	pop	r14
    18b6:	df 90       	pop	r13
    18b8:	cf 90       	pop	r12
    18ba:	bf 90       	pop	r11
    18bc:	af 90       	pop	r10
    18be:	9f 90       	pop	r9
    18c0:	8f 90       	pop	r8
    18c2:	7f 90       	pop	r7
    18c4:	6f 90       	pop	r6
    18c6:	5f 90       	pop	r5
    18c8:	4f 90       	pop	r4
    18ca:	08 95       	ret

000018cc <timer_on>:
    WriteInt(seconds);
}

//  

void timer_on() {
    18cc:	cf 93       	push	r28
    18ce:	df 93       	push	r29
    18d0:	c9 e1       	ldi	r28, 0x19	; 25
    18d2:	d0 e0       	ldi	r29, 0x00	; 0

//    

char detect_buttons() {
    static char previous_port = 0xFF;
    char current_port = PINB;
    18d4:	86 b3       	in	r24, 0x16	; 22
    char buttons = ~current_port & previous_port;
    18d6:	98 2f       	mov	r25, r24
    18d8:	90 95       	com	r25
    18da:	20 91 69 00 	lds	r18, 0x0069
    18de:	92 23       	and	r25, r18
    previous_port = current_port;
    18e0:	80 93 69 00 	sts	0x0069, r24
//  

void timer_on() {
    while (1) {
        char buttons = detect_buttons();
        if (buttons & BUTTON_TIMER_OFF) {
    18e4:	91 fd       	sbrc	r25, 1
    18e6:	1a c0       	rjmp	.+52     	; 0x191c <timer_on+0x50>
            break;
        }
        erase_prev_time();
    18e8:	0e 94 f1 08 	call	0x11e2	; 0x11e2 <erase_prev_time>
        draw_time();
    18ec:	0e 94 67 0b 	call	0x16ce	; 0x16ce <draw_time>
        seconds++;
    18f0:	80 91 77 01 	lds	r24, 0x0177
    18f4:	8f 5f       	subi	r24, 0xFF	; 255
    18f6:	80 93 77 01 	sts	0x0177, r24
        if (seconds == 60) {
    18fa:	8c 33       	cpi	r24, 0x3C	; 60
    18fc:	39 f4       	brne	.+14     	; 0x190c <timer_on+0x40>
            seconds = 0;
    18fe:	10 92 77 01 	sts	0x0177, r1
            minutes++;
    1902:	80 91 76 01 	lds	r24, 0x0176
    1906:	8f 5f       	subi	r24, 0xFF	; 255
    1908:	80 93 76 01 	sts	0x0176, r24
    190c:	88 e8       	ldi	r24, 0x88	; 136
    190e:	93 e1       	ldi	r25, 0x13	; 19
    1910:	fe 01       	movw	r30, r28
    1912:	31 97       	sbiw	r30, 0x01	; 1
    1914:	f1 f7       	brne	.-4      	; 0x1912 <timer_on+0x46>
		__ticks = (uint16_t) (__ms * 10.0);
		while(__ticks)
		{
			// wait 1/10 ms
			_delay_loop_2(((F_CPU) / 4e3) / 10);
			__ticks --;
    1916:	01 97       	sbiw	r24, 0x01	; 1
		__ticks = 1;
	else if (__tmp > 65535)
	{
		//	__ticks = requested delay in 1/10 ms
		__ticks = (uint16_t) (__ms * 10.0);
		while(__ticks)
    1918:	e9 f2       	breq	.-70     	; 0x18d4 <timer_on+0x8>
    191a:	fa cf       	rjmp	.-12     	; 0x1910 <timer_on+0x44>
        }

        _delay_ms(500);
    }
}
    191c:	df 91       	pop	r29
    191e:	cf 91       	pop	r28
    1920:	08 95       	ret

00001922 <main>:
void DrawBackground() {
    FillRect(0, 0, XSIZE, YSIZE, background_color);
}


void main() {
    1922:	cf 93       	push	r28
    1924:	df 93       	push	r29
    DDRB = 0x00;
    1926:	17 ba       	out	0x17, r1	; 23
    PORTB = 0xFF;
    1928:	8f ef       	ldi	r24, 0xFF	; 255
    192a:	88 bb       	out	0x18, r24	; 24
    DDRD = 0xFF;
    192c:	81 bb       	out	0x11, r24	; 17
    PORTD = 0xFF;
    192e:	82 bb       	out	0x12, r24	; 18

    InitTFT();
    1930:	0e 94 71 02 	call	0x4e2	; 0x4e2 <InitTFT>
    DrawBackground();
    1934:	0e 94 e4 08 	call	0x11c8	; 0x11c8 <DrawBackground>
    DrawClockFace();
    1938:	0e 94 e4 09 	call	0x13c8	; 0x13c8 <DrawClockFace>
    draw_time();
    193c:	0e 94 67 0b 	call	0x16ce	; 0x16ce <draw_time>
    1940:	c4 ec       	ldi	r28, 0xC4	; 196
    1942:	d9 e0       	ldi	r29, 0x09	; 9

//    

char detect_buttons() {
    static char previous_port = 0xFF;
    char current_port = PINB;
    1944:	86 b3       	in	r24, 0x16	; 22
    char buttons = ~current_port & previous_port;
    1946:	98 2f       	mov	r25, r24
    1948:	90 95       	com	r25
    194a:	20 91 69 00 	lds	r18, 0x0069
    194e:	92 23       	and	r25, r18
    previous_port = current_port;
    1950:	80 93 69 00 	sts	0x0069, r24
    DrawClockFace();
    draw_time();

    while (1) {
        char buttons = detect_buttons();
        if (buttons & BUTTON_TIMER_ON) {
    1954:	90 ff       	sbrs	r25, 0
    1956:	03 c0       	rjmp	.+6      	; 0x195e <main+0x3c>
            timer_on();
    1958:	0e 94 66 0c 	call	0x18cc	; 0x18cc <timer_on>
    195c:	0a c0       	rjmp	.+20     	; 0x1972 <main+0x50>
        }
        else if (buttons & BUTTON_TIMER_NULL) {
    195e:	92 ff       	sbrs	r25, 2
    1960:	08 c0       	rjmp	.+16     	; 0x1972 <main+0x50>
            minutes = 0;
    1962:	10 92 76 01 	sts	0x0176, r1
            seconds = 0;
    1966:	10 92 77 01 	sts	0x0177, r1
            erase_prev_time();
    196a:	0e 94 f1 08 	call	0x11e2	; 0x11e2 <erase_prev_time>
            draw_time();
    196e:	0e 94 67 0b 	call	0x16ce	; 0x16ce <draw_time>
    1972:	ce 01       	movw	r24, r28
    1974:	01 97       	sbiw	r24, 0x01	; 1
    1976:	f1 f7       	brne	.-4      	; 0x1974 <main+0x52>
    1978:	e5 cf       	rjmp	.-54     	; 0x1944 <main+0x22>

0000197a <__fixunssfsi>:
    197a:	ef 92       	push	r14
    197c:	ff 92       	push	r15
    197e:	0f 93       	push	r16
    1980:	1f 93       	push	r17
    1982:	7b 01       	movw	r14, r22
    1984:	8c 01       	movw	r16, r24
    1986:	20 e0       	ldi	r18, 0x00	; 0
    1988:	30 e0       	ldi	r19, 0x00	; 0
    198a:	40 e0       	ldi	r20, 0x00	; 0
    198c:	5f e4       	ldi	r21, 0x4F	; 79
    198e:	0e 94 39 10 	call	0x2072	; 0x2072 <__gesf2>
    1992:	88 23       	and	r24, r24
    1994:	8c f0       	brlt	.+34     	; 0x19b8 <__fixunssfsi+0x3e>
    1996:	c8 01       	movw	r24, r16
    1998:	b7 01       	movw	r22, r14
    199a:	20 e0       	ldi	r18, 0x00	; 0
    199c:	30 e0       	ldi	r19, 0x00	; 0
    199e:	40 e0       	ldi	r20, 0x00	; 0
    19a0:	5f e4       	ldi	r21, 0x4F	; 79
    19a2:	0e 94 35 0e 	call	0x1c6a	; 0x1c6a <__subsf3>
    19a6:	0e 94 c7 10 	call	0x218e	; 0x218e <__fixsfsi>
    19aa:	9b 01       	movw	r18, r22
    19ac:	ac 01       	movw	r20, r24
    19ae:	20 50       	subi	r18, 0x00	; 0
    19b0:	30 40       	sbci	r19, 0x00	; 0
    19b2:	40 40       	sbci	r20, 0x00	; 0
    19b4:	50 48       	sbci	r21, 0x80	; 128
    19b6:	06 c0       	rjmp	.+12     	; 0x19c4 <__fixunssfsi+0x4a>
    19b8:	c8 01       	movw	r24, r16
    19ba:	b7 01       	movw	r22, r14
    19bc:	0e 94 c7 10 	call	0x218e	; 0x218e <__fixsfsi>
    19c0:	9b 01       	movw	r18, r22
    19c2:	ac 01       	movw	r20, r24
    19c4:	b9 01       	movw	r22, r18
    19c6:	ca 01       	movw	r24, r20
    19c8:	1f 91       	pop	r17
    19ca:	0f 91       	pop	r16
    19cc:	ff 90       	pop	r15
    19ce:	ef 90       	pop	r14
    19d0:	08 95       	ret

000019d2 <_fpadd_parts>:
    19d2:	a0 e0       	ldi	r26, 0x00	; 0
    19d4:	b0 e0       	ldi	r27, 0x00	; 0
    19d6:	ef ee       	ldi	r30, 0xEF	; 239
    19d8:	fc e0       	ldi	r31, 0x0C	; 12
    19da:	0c 94 62 13 	jmp	0x26c4	; 0x26c4 <__prologue_saves__>
    19de:	dc 01       	movw	r26, r24
    19e0:	2b 01       	movw	r4, r22
    19e2:	fa 01       	movw	r30, r20
    19e4:	9c 91       	ld	r25, X
    19e6:	92 30       	cpi	r25, 0x02	; 2
    19e8:	08 f4       	brcc	.+2      	; 0x19ec <_fpadd_parts+0x1a>
    19ea:	39 c1       	rjmp	.+626    	; 0x1c5e <_fpadd_parts+0x28c>
    19ec:	eb 01       	movw	r28, r22
    19ee:	88 81       	ld	r24, Y
    19f0:	82 30       	cpi	r24, 0x02	; 2
    19f2:	08 f4       	brcc	.+2      	; 0x19f6 <_fpadd_parts+0x24>
    19f4:	33 c1       	rjmp	.+614    	; 0x1c5c <_fpadd_parts+0x28a>
    19f6:	94 30       	cpi	r25, 0x04	; 4
    19f8:	69 f4       	brne	.+26     	; 0x1a14 <_fpadd_parts+0x42>
    19fa:	84 30       	cpi	r24, 0x04	; 4
    19fc:	09 f0       	breq	.+2      	; 0x1a00 <_fpadd_parts+0x2e>
    19fe:	2f c1       	rjmp	.+606    	; 0x1c5e <_fpadd_parts+0x28c>
    1a00:	11 96       	adiw	r26, 0x01	; 1
    1a02:	9c 91       	ld	r25, X
    1a04:	11 97       	sbiw	r26, 0x01	; 1
    1a06:	89 81       	ldd	r24, Y+1	; 0x01
    1a08:	98 17       	cp	r25, r24
    1a0a:	09 f4       	brne	.+2      	; 0x1a0e <_fpadd_parts+0x3c>
    1a0c:	28 c1       	rjmp	.+592    	; 0x1c5e <_fpadd_parts+0x28c>
    1a0e:	aa e6       	ldi	r26, 0x6A	; 106
    1a10:	b0 e0       	ldi	r27, 0x00	; 0
    1a12:	25 c1       	rjmp	.+586    	; 0x1c5e <_fpadd_parts+0x28c>
    1a14:	84 30       	cpi	r24, 0x04	; 4
    1a16:	09 f4       	brne	.+2      	; 0x1a1a <_fpadd_parts+0x48>
    1a18:	21 c1       	rjmp	.+578    	; 0x1c5c <_fpadd_parts+0x28a>
    1a1a:	82 30       	cpi	r24, 0x02	; 2
    1a1c:	a9 f4       	brne	.+42     	; 0x1a48 <_fpadd_parts+0x76>
    1a1e:	92 30       	cpi	r25, 0x02	; 2
    1a20:	09 f0       	breq	.+2      	; 0x1a24 <_fpadd_parts+0x52>
    1a22:	1d c1       	rjmp	.+570    	; 0x1c5e <_fpadd_parts+0x28c>
    1a24:	9a 01       	movw	r18, r20
    1a26:	ad 01       	movw	r20, r26
    1a28:	88 e0       	ldi	r24, 0x08	; 8
    1a2a:	ea 01       	movw	r28, r20
    1a2c:	09 90       	ld	r0, Y+
    1a2e:	ae 01       	movw	r20, r28
    1a30:	e9 01       	movw	r28, r18
    1a32:	09 92       	st	Y+, r0
    1a34:	9e 01       	movw	r18, r28
    1a36:	81 50       	subi	r24, 0x01	; 1
    1a38:	c1 f7       	brne	.-16     	; 0x1a2a <_fpadd_parts+0x58>
    1a3a:	e2 01       	movw	r28, r4
    1a3c:	89 81       	ldd	r24, Y+1	; 0x01
    1a3e:	11 96       	adiw	r26, 0x01	; 1
    1a40:	9c 91       	ld	r25, X
    1a42:	89 23       	and	r24, r25
    1a44:	81 83       	std	Z+1, r24	; 0x01
    1a46:	08 c1       	rjmp	.+528    	; 0x1c58 <_fpadd_parts+0x286>
    1a48:	92 30       	cpi	r25, 0x02	; 2
    1a4a:	09 f4       	brne	.+2      	; 0x1a4e <_fpadd_parts+0x7c>
    1a4c:	07 c1       	rjmp	.+526    	; 0x1c5c <_fpadd_parts+0x28a>
    1a4e:	12 96       	adiw	r26, 0x02	; 2
    1a50:	2d 90       	ld	r2, X+
    1a52:	3c 90       	ld	r3, X
    1a54:	13 97       	sbiw	r26, 0x03	; 3
    1a56:	eb 01       	movw	r28, r22
    1a58:	8a 81       	ldd	r24, Y+2	; 0x02
    1a5a:	9b 81       	ldd	r25, Y+3	; 0x03
    1a5c:	14 96       	adiw	r26, 0x04	; 4
    1a5e:	ad 90       	ld	r10, X+
    1a60:	bd 90       	ld	r11, X+
    1a62:	cd 90       	ld	r12, X+
    1a64:	dc 90       	ld	r13, X
    1a66:	17 97       	sbiw	r26, 0x07	; 7
    1a68:	ec 80       	ldd	r14, Y+4	; 0x04
    1a6a:	fd 80       	ldd	r15, Y+5	; 0x05
    1a6c:	0e 81       	ldd	r16, Y+6	; 0x06
    1a6e:	1f 81       	ldd	r17, Y+7	; 0x07
    1a70:	91 01       	movw	r18, r2
    1a72:	28 1b       	sub	r18, r24
    1a74:	39 0b       	sbc	r19, r25
    1a76:	b9 01       	movw	r22, r18
    1a78:	37 ff       	sbrs	r19, 7
    1a7a:	04 c0       	rjmp	.+8      	; 0x1a84 <_fpadd_parts+0xb2>
    1a7c:	66 27       	eor	r22, r22
    1a7e:	77 27       	eor	r23, r23
    1a80:	62 1b       	sub	r22, r18
    1a82:	73 0b       	sbc	r23, r19
    1a84:	60 32       	cpi	r22, 0x20	; 32
    1a86:	71 05       	cpc	r23, r1
    1a88:	0c f0       	brlt	.+2      	; 0x1a8c <_fpadd_parts+0xba>
    1a8a:	61 c0       	rjmp	.+194    	; 0x1b4e <_fpadd_parts+0x17c>
    1a8c:	12 16       	cp	r1, r18
    1a8e:	13 06       	cpc	r1, r19
    1a90:	6c f5       	brge	.+90     	; 0x1aec <_fpadd_parts+0x11a>
    1a92:	37 01       	movw	r6, r14
    1a94:	48 01       	movw	r8, r16
    1a96:	06 2e       	mov	r0, r22
    1a98:	04 c0       	rjmp	.+8      	; 0x1aa2 <_fpadd_parts+0xd0>
    1a9a:	96 94       	lsr	r9
    1a9c:	87 94       	ror	r8
    1a9e:	77 94       	ror	r7
    1aa0:	67 94       	ror	r6
    1aa2:	0a 94       	dec	r0
    1aa4:	d2 f7       	brpl	.-12     	; 0x1a9a <_fpadd_parts+0xc8>
    1aa6:	21 e0       	ldi	r18, 0x01	; 1
    1aa8:	30 e0       	ldi	r19, 0x00	; 0
    1aaa:	40 e0       	ldi	r20, 0x00	; 0
    1aac:	50 e0       	ldi	r21, 0x00	; 0
    1aae:	04 c0       	rjmp	.+8      	; 0x1ab8 <_fpadd_parts+0xe6>
    1ab0:	22 0f       	add	r18, r18
    1ab2:	33 1f       	adc	r19, r19
    1ab4:	44 1f       	adc	r20, r20
    1ab6:	55 1f       	adc	r21, r21
    1ab8:	6a 95       	dec	r22
    1aba:	d2 f7       	brpl	.-12     	; 0x1ab0 <_fpadd_parts+0xde>
    1abc:	21 50       	subi	r18, 0x01	; 1
    1abe:	30 40       	sbci	r19, 0x00	; 0
    1ac0:	40 40       	sbci	r20, 0x00	; 0
    1ac2:	50 40       	sbci	r21, 0x00	; 0
    1ac4:	2e 21       	and	r18, r14
    1ac6:	3f 21       	and	r19, r15
    1ac8:	40 23       	and	r20, r16
    1aca:	51 23       	and	r21, r17
    1acc:	21 15       	cp	r18, r1
    1ace:	31 05       	cpc	r19, r1
    1ad0:	41 05       	cpc	r20, r1
    1ad2:	51 05       	cpc	r21, r1
    1ad4:	21 f0       	breq	.+8      	; 0x1ade <_fpadd_parts+0x10c>
    1ad6:	21 e0       	ldi	r18, 0x01	; 1
    1ad8:	30 e0       	ldi	r19, 0x00	; 0
    1ada:	40 e0       	ldi	r20, 0x00	; 0
    1adc:	50 e0       	ldi	r21, 0x00	; 0
    1ade:	79 01       	movw	r14, r18
    1ae0:	8a 01       	movw	r16, r20
    1ae2:	e6 28       	or	r14, r6
    1ae4:	f7 28       	or	r15, r7
    1ae6:	08 29       	or	r16, r8
    1ae8:	19 29       	or	r17, r9
    1aea:	3c c0       	rjmp	.+120    	; 0x1b64 <_fpadd_parts+0x192>
    1aec:	23 2b       	or	r18, r19
    1aee:	d1 f1       	breq	.+116    	; 0x1b64 <_fpadd_parts+0x192>
    1af0:	26 0e       	add	r2, r22
    1af2:	37 1e       	adc	r3, r23
    1af4:	35 01       	movw	r6, r10
    1af6:	46 01       	movw	r8, r12
    1af8:	06 2e       	mov	r0, r22
    1afa:	04 c0       	rjmp	.+8      	; 0x1b04 <_fpadd_parts+0x132>
    1afc:	96 94       	lsr	r9
    1afe:	87 94       	ror	r8
    1b00:	77 94       	ror	r7
    1b02:	67 94       	ror	r6
    1b04:	0a 94       	dec	r0
    1b06:	d2 f7       	brpl	.-12     	; 0x1afc <_fpadd_parts+0x12a>
    1b08:	21 e0       	ldi	r18, 0x01	; 1
    1b0a:	30 e0       	ldi	r19, 0x00	; 0
    1b0c:	40 e0       	ldi	r20, 0x00	; 0
    1b0e:	50 e0       	ldi	r21, 0x00	; 0
    1b10:	04 c0       	rjmp	.+8      	; 0x1b1a <_fpadd_parts+0x148>
    1b12:	22 0f       	add	r18, r18
    1b14:	33 1f       	adc	r19, r19
    1b16:	44 1f       	adc	r20, r20
    1b18:	55 1f       	adc	r21, r21
    1b1a:	6a 95       	dec	r22
    1b1c:	d2 f7       	brpl	.-12     	; 0x1b12 <_fpadd_parts+0x140>
    1b1e:	21 50       	subi	r18, 0x01	; 1
    1b20:	30 40       	sbci	r19, 0x00	; 0
    1b22:	40 40       	sbci	r20, 0x00	; 0
    1b24:	50 40       	sbci	r21, 0x00	; 0
    1b26:	2a 21       	and	r18, r10
    1b28:	3b 21       	and	r19, r11
    1b2a:	4c 21       	and	r20, r12
    1b2c:	5d 21       	and	r21, r13
    1b2e:	21 15       	cp	r18, r1
    1b30:	31 05       	cpc	r19, r1
    1b32:	41 05       	cpc	r20, r1
    1b34:	51 05       	cpc	r21, r1
    1b36:	21 f0       	breq	.+8      	; 0x1b40 <_fpadd_parts+0x16e>
    1b38:	21 e0       	ldi	r18, 0x01	; 1
    1b3a:	30 e0       	ldi	r19, 0x00	; 0
    1b3c:	40 e0       	ldi	r20, 0x00	; 0
    1b3e:	50 e0       	ldi	r21, 0x00	; 0
    1b40:	59 01       	movw	r10, r18
    1b42:	6a 01       	movw	r12, r20
    1b44:	a6 28       	or	r10, r6
    1b46:	b7 28       	or	r11, r7
    1b48:	c8 28       	or	r12, r8
    1b4a:	d9 28       	or	r13, r9
    1b4c:	0b c0       	rjmp	.+22     	; 0x1b64 <_fpadd_parts+0x192>
    1b4e:	82 15       	cp	r24, r2
    1b50:	93 05       	cpc	r25, r3
    1b52:	2c f0       	brlt	.+10     	; 0x1b5e <_fpadd_parts+0x18c>
    1b54:	1c 01       	movw	r2, r24
    1b56:	aa 24       	eor	r10, r10
    1b58:	bb 24       	eor	r11, r11
    1b5a:	65 01       	movw	r12, r10
    1b5c:	03 c0       	rjmp	.+6      	; 0x1b64 <_fpadd_parts+0x192>
    1b5e:	ee 24       	eor	r14, r14
    1b60:	ff 24       	eor	r15, r15
    1b62:	87 01       	movw	r16, r14
    1b64:	11 96       	adiw	r26, 0x01	; 1
    1b66:	9c 91       	ld	r25, X
    1b68:	d2 01       	movw	r26, r4
    1b6a:	11 96       	adiw	r26, 0x01	; 1
    1b6c:	8c 91       	ld	r24, X
    1b6e:	98 17       	cp	r25, r24
    1b70:	09 f4       	brne	.+2      	; 0x1b74 <_fpadd_parts+0x1a2>
    1b72:	45 c0       	rjmp	.+138    	; 0x1bfe <_fpadd_parts+0x22c>
    1b74:	99 23       	and	r25, r25
    1b76:	39 f0       	breq	.+14     	; 0x1b86 <_fpadd_parts+0x1b4>
    1b78:	a8 01       	movw	r20, r16
    1b7a:	97 01       	movw	r18, r14
    1b7c:	2a 19       	sub	r18, r10
    1b7e:	3b 09       	sbc	r19, r11
    1b80:	4c 09       	sbc	r20, r12
    1b82:	5d 09       	sbc	r21, r13
    1b84:	06 c0       	rjmp	.+12     	; 0x1b92 <_fpadd_parts+0x1c0>
    1b86:	a6 01       	movw	r20, r12
    1b88:	95 01       	movw	r18, r10
    1b8a:	2e 19       	sub	r18, r14
    1b8c:	3f 09       	sbc	r19, r15
    1b8e:	40 0b       	sbc	r20, r16
    1b90:	51 0b       	sbc	r21, r17
    1b92:	57 fd       	sbrc	r21, 7
    1b94:	08 c0       	rjmp	.+16     	; 0x1ba6 <_fpadd_parts+0x1d4>
    1b96:	11 82       	std	Z+1, r1	; 0x01
    1b98:	33 82       	std	Z+3, r3	; 0x03
    1b9a:	22 82       	std	Z+2, r2	; 0x02
    1b9c:	24 83       	std	Z+4, r18	; 0x04
    1b9e:	35 83       	std	Z+5, r19	; 0x05
    1ba0:	46 83       	std	Z+6, r20	; 0x06
    1ba2:	57 83       	std	Z+7, r21	; 0x07
    1ba4:	1d c0       	rjmp	.+58     	; 0x1be0 <_fpadd_parts+0x20e>
    1ba6:	81 e0       	ldi	r24, 0x01	; 1
    1ba8:	81 83       	std	Z+1, r24	; 0x01
    1baa:	33 82       	std	Z+3, r3	; 0x03
    1bac:	22 82       	std	Z+2, r2	; 0x02
    1bae:	88 27       	eor	r24, r24
    1bb0:	99 27       	eor	r25, r25
    1bb2:	dc 01       	movw	r26, r24
    1bb4:	82 1b       	sub	r24, r18
    1bb6:	93 0b       	sbc	r25, r19
    1bb8:	a4 0b       	sbc	r26, r20
    1bba:	b5 0b       	sbc	r27, r21
    1bbc:	84 83       	std	Z+4, r24	; 0x04
    1bbe:	95 83       	std	Z+5, r25	; 0x05
    1bc0:	a6 83       	std	Z+6, r26	; 0x06
    1bc2:	b7 83       	std	Z+7, r27	; 0x07
    1bc4:	0d c0       	rjmp	.+26     	; 0x1be0 <_fpadd_parts+0x20e>
    1bc6:	22 0f       	add	r18, r18
    1bc8:	33 1f       	adc	r19, r19
    1bca:	44 1f       	adc	r20, r20
    1bcc:	55 1f       	adc	r21, r21
    1bce:	24 83       	std	Z+4, r18	; 0x04
    1bd0:	35 83       	std	Z+5, r19	; 0x05
    1bd2:	46 83       	std	Z+6, r20	; 0x06
    1bd4:	57 83       	std	Z+7, r21	; 0x07
    1bd6:	82 81       	ldd	r24, Z+2	; 0x02
    1bd8:	93 81       	ldd	r25, Z+3	; 0x03
    1bda:	01 97       	sbiw	r24, 0x01	; 1
    1bdc:	93 83       	std	Z+3, r25	; 0x03
    1bde:	82 83       	std	Z+2, r24	; 0x02
    1be0:	24 81       	ldd	r18, Z+4	; 0x04
    1be2:	35 81       	ldd	r19, Z+5	; 0x05
    1be4:	46 81       	ldd	r20, Z+6	; 0x06
    1be6:	57 81       	ldd	r21, Z+7	; 0x07
    1be8:	da 01       	movw	r26, r20
    1bea:	c9 01       	movw	r24, r18
    1bec:	01 97       	sbiw	r24, 0x01	; 1
    1bee:	a1 09       	sbc	r26, r1
    1bf0:	b1 09       	sbc	r27, r1
    1bf2:	8f 5f       	subi	r24, 0xFF	; 255
    1bf4:	9f 4f       	sbci	r25, 0xFF	; 255
    1bf6:	af 4f       	sbci	r26, 0xFF	; 255
    1bf8:	bf 43       	sbci	r27, 0x3F	; 63
    1bfa:	28 f3       	brcs	.-54     	; 0x1bc6 <_fpadd_parts+0x1f4>
    1bfc:	0b c0       	rjmp	.+22     	; 0x1c14 <_fpadd_parts+0x242>
    1bfe:	91 83       	std	Z+1, r25	; 0x01
    1c00:	33 82       	std	Z+3, r3	; 0x03
    1c02:	22 82       	std	Z+2, r2	; 0x02
    1c04:	ea 0c       	add	r14, r10
    1c06:	fb 1c       	adc	r15, r11
    1c08:	0c 1d       	adc	r16, r12
    1c0a:	1d 1d       	adc	r17, r13
    1c0c:	e4 82       	std	Z+4, r14	; 0x04
    1c0e:	f5 82       	std	Z+5, r15	; 0x05
    1c10:	06 83       	std	Z+6, r16	; 0x06
    1c12:	17 83       	std	Z+7, r17	; 0x07
    1c14:	83 e0       	ldi	r24, 0x03	; 3
    1c16:	80 83       	st	Z, r24
    1c18:	24 81       	ldd	r18, Z+4	; 0x04
    1c1a:	35 81       	ldd	r19, Z+5	; 0x05
    1c1c:	46 81       	ldd	r20, Z+6	; 0x06
    1c1e:	57 81       	ldd	r21, Z+7	; 0x07
    1c20:	57 ff       	sbrs	r21, 7
    1c22:	1a c0       	rjmp	.+52     	; 0x1c58 <_fpadd_parts+0x286>
    1c24:	c9 01       	movw	r24, r18
    1c26:	aa 27       	eor	r26, r26
    1c28:	97 fd       	sbrc	r25, 7
    1c2a:	a0 95       	com	r26
    1c2c:	ba 2f       	mov	r27, r26
    1c2e:	81 70       	andi	r24, 0x01	; 1
    1c30:	90 70       	andi	r25, 0x00	; 0
    1c32:	a0 70       	andi	r26, 0x00	; 0
    1c34:	b0 70       	andi	r27, 0x00	; 0
    1c36:	56 95       	lsr	r21
    1c38:	47 95       	ror	r20
    1c3a:	37 95       	ror	r19
    1c3c:	27 95       	ror	r18
    1c3e:	82 2b       	or	r24, r18
    1c40:	93 2b       	or	r25, r19
    1c42:	a4 2b       	or	r26, r20
    1c44:	b5 2b       	or	r27, r21
    1c46:	84 83       	std	Z+4, r24	; 0x04
    1c48:	95 83       	std	Z+5, r25	; 0x05
    1c4a:	a6 83       	std	Z+6, r26	; 0x06
    1c4c:	b7 83       	std	Z+7, r27	; 0x07
    1c4e:	82 81       	ldd	r24, Z+2	; 0x02
    1c50:	93 81       	ldd	r25, Z+3	; 0x03
    1c52:	01 96       	adiw	r24, 0x01	; 1
    1c54:	93 83       	std	Z+3, r25	; 0x03
    1c56:	82 83       	std	Z+2, r24	; 0x02
    1c58:	df 01       	movw	r26, r30
    1c5a:	01 c0       	rjmp	.+2      	; 0x1c5e <_fpadd_parts+0x28c>
    1c5c:	d2 01       	movw	r26, r4
    1c5e:	cd 01       	movw	r24, r26
    1c60:	cd b7       	in	r28, 0x3d	; 61
    1c62:	de b7       	in	r29, 0x3e	; 62
    1c64:	e2 e1       	ldi	r30, 0x12	; 18
    1c66:	0c 94 7e 13 	jmp	0x26fc	; 0x26fc <__epilogue_restores__>

00001c6a <__subsf3>:
    1c6a:	a0 e2       	ldi	r26, 0x20	; 32
    1c6c:	b0 e0       	ldi	r27, 0x00	; 0
    1c6e:	eb e3       	ldi	r30, 0x3B	; 59
    1c70:	fe e0       	ldi	r31, 0x0E	; 14
    1c72:	0c 94 6e 13 	jmp	0x26dc	; 0x26dc <__prologue_saves__+0x18>
    1c76:	69 83       	std	Y+1, r22	; 0x01
    1c78:	7a 83       	std	Y+2, r23	; 0x02
    1c7a:	8b 83       	std	Y+3, r24	; 0x03
    1c7c:	9c 83       	std	Y+4, r25	; 0x04
    1c7e:	2d 83       	std	Y+5, r18	; 0x05
    1c80:	3e 83       	std	Y+6, r19	; 0x06
    1c82:	4f 83       	std	Y+7, r20	; 0x07
    1c84:	58 87       	std	Y+8, r21	; 0x08
    1c86:	e9 e0       	ldi	r30, 0x09	; 9
    1c88:	ee 2e       	mov	r14, r30
    1c8a:	f1 2c       	mov	r15, r1
    1c8c:	ec 0e       	add	r14, r28
    1c8e:	fd 1e       	adc	r15, r29
    1c90:	ce 01       	movw	r24, r28
    1c92:	01 96       	adiw	r24, 0x01	; 1
    1c94:	b7 01       	movw	r22, r14
    1c96:	0e 94 3f 12 	call	0x247e	; 0x247e <__unpack_f>
    1c9a:	8e 01       	movw	r16, r28
    1c9c:	0f 5e       	subi	r16, 0xEF	; 239
    1c9e:	1f 4f       	sbci	r17, 0xFF	; 255
    1ca0:	ce 01       	movw	r24, r28
    1ca2:	05 96       	adiw	r24, 0x05	; 5
    1ca4:	b8 01       	movw	r22, r16
    1ca6:	0e 94 3f 12 	call	0x247e	; 0x247e <__unpack_f>
    1caa:	8a 89       	ldd	r24, Y+18	; 0x12
    1cac:	91 e0       	ldi	r25, 0x01	; 1
    1cae:	89 27       	eor	r24, r25
    1cb0:	8a 8b       	std	Y+18, r24	; 0x12
    1cb2:	c7 01       	movw	r24, r14
    1cb4:	b8 01       	movw	r22, r16
    1cb6:	ae 01       	movw	r20, r28
    1cb8:	47 5e       	subi	r20, 0xE7	; 231
    1cba:	5f 4f       	sbci	r21, 0xFF	; 255
    1cbc:	0e 94 e9 0c 	call	0x19d2	; 0x19d2 <_fpadd_parts>
    1cc0:	0e 94 6a 11 	call	0x22d4	; 0x22d4 <__pack_f>
    1cc4:	a0 96       	adiw	r28, 0x20	; 32
    1cc6:	e6 e0       	ldi	r30, 0x06	; 6
    1cc8:	0c 94 8a 13 	jmp	0x2714	; 0x2714 <__epilogue_restores__+0x18>

00001ccc <__addsf3>:
    1ccc:	a0 e2       	ldi	r26, 0x20	; 32
    1cce:	b0 e0       	ldi	r27, 0x00	; 0
    1cd0:	ec e6       	ldi	r30, 0x6C	; 108
    1cd2:	fe e0       	ldi	r31, 0x0E	; 14
    1cd4:	0c 94 6e 13 	jmp	0x26dc	; 0x26dc <__prologue_saves__+0x18>
    1cd8:	69 83       	std	Y+1, r22	; 0x01
    1cda:	7a 83       	std	Y+2, r23	; 0x02
    1cdc:	8b 83       	std	Y+3, r24	; 0x03
    1cde:	9c 83       	std	Y+4, r25	; 0x04
    1ce0:	2d 83       	std	Y+5, r18	; 0x05
    1ce2:	3e 83       	std	Y+6, r19	; 0x06
    1ce4:	4f 83       	std	Y+7, r20	; 0x07
    1ce6:	58 87       	std	Y+8, r21	; 0x08
    1ce8:	f9 e0       	ldi	r31, 0x09	; 9
    1cea:	ef 2e       	mov	r14, r31
    1cec:	f1 2c       	mov	r15, r1
    1cee:	ec 0e       	add	r14, r28
    1cf0:	fd 1e       	adc	r15, r29
    1cf2:	ce 01       	movw	r24, r28
    1cf4:	01 96       	adiw	r24, 0x01	; 1
    1cf6:	b7 01       	movw	r22, r14
    1cf8:	0e 94 3f 12 	call	0x247e	; 0x247e <__unpack_f>
    1cfc:	8e 01       	movw	r16, r28
    1cfe:	0f 5e       	subi	r16, 0xEF	; 239
    1d00:	1f 4f       	sbci	r17, 0xFF	; 255
    1d02:	ce 01       	movw	r24, r28
    1d04:	05 96       	adiw	r24, 0x05	; 5
    1d06:	b8 01       	movw	r22, r16
    1d08:	0e 94 3f 12 	call	0x247e	; 0x247e <__unpack_f>
    1d0c:	c7 01       	movw	r24, r14
    1d0e:	b8 01       	movw	r22, r16
    1d10:	ae 01       	movw	r20, r28
    1d12:	47 5e       	subi	r20, 0xE7	; 231
    1d14:	5f 4f       	sbci	r21, 0xFF	; 255
    1d16:	0e 94 e9 0c 	call	0x19d2	; 0x19d2 <_fpadd_parts>
    1d1a:	0e 94 6a 11 	call	0x22d4	; 0x22d4 <__pack_f>
    1d1e:	a0 96       	adiw	r28, 0x20	; 32
    1d20:	e6 e0       	ldi	r30, 0x06	; 6
    1d22:	0c 94 8a 13 	jmp	0x2714	; 0x2714 <__epilogue_restores__+0x18>

00001d26 <__mulsf3>:
    1d26:	a0 e2       	ldi	r26, 0x20	; 32
    1d28:	b0 e0       	ldi	r27, 0x00	; 0
    1d2a:	e9 e9       	ldi	r30, 0x99	; 153
    1d2c:	fe e0       	ldi	r31, 0x0E	; 14
    1d2e:	0c 94 62 13 	jmp	0x26c4	; 0x26c4 <__prologue_saves__>
    1d32:	69 83       	std	Y+1, r22	; 0x01
    1d34:	7a 83       	std	Y+2, r23	; 0x02
    1d36:	8b 83       	std	Y+3, r24	; 0x03
    1d38:	9c 83       	std	Y+4, r25	; 0x04
    1d3a:	2d 83       	std	Y+5, r18	; 0x05
    1d3c:	3e 83       	std	Y+6, r19	; 0x06
    1d3e:	4f 83       	std	Y+7, r20	; 0x07
    1d40:	58 87       	std	Y+8, r21	; 0x08
    1d42:	ce 01       	movw	r24, r28
    1d44:	01 96       	adiw	r24, 0x01	; 1
    1d46:	be 01       	movw	r22, r28
    1d48:	67 5f       	subi	r22, 0xF7	; 247
    1d4a:	7f 4f       	sbci	r23, 0xFF	; 255
    1d4c:	0e 94 3f 12 	call	0x247e	; 0x247e <__unpack_f>
    1d50:	ce 01       	movw	r24, r28
    1d52:	05 96       	adiw	r24, 0x05	; 5
    1d54:	be 01       	movw	r22, r28
    1d56:	6f 5e       	subi	r22, 0xEF	; 239
    1d58:	7f 4f       	sbci	r23, 0xFF	; 255
    1d5a:	0e 94 3f 12 	call	0x247e	; 0x247e <__unpack_f>
    1d5e:	99 85       	ldd	r25, Y+9	; 0x09
    1d60:	92 30       	cpi	r25, 0x02	; 2
    1d62:	88 f0       	brcs	.+34     	; 0x1d86 <__mulsf3+0x60>
    1d64:	89 89       	ldd	r24, Y+17	; 0x11
    1d66:	82 30       	cpi	r24, 0x02	; 2
    1d68:	c8 f0       	brcs	.+50     	; 0x1d9c <__mulsf3+0x76>
    1d6a:	94 30       	cpi	r25, 0x04	; 4
    1d6c:	19 f4       	brne	.+6      	; 0x1d74 <__mulsf3+0x4e>
    1d6e:	82 30       	cpi	r24, 0x02	; 2
    1d70:	51 f4       	brne	.+20     	; 0x1d86 <__mulsf3+0x60>
    1d72:	04 c0       	rjmp	.+8      	; 0x1d7c <__mulsf3+0x56>
    1d74:	84 30       	cpi	r24, 0x04	; 4
    1d76:	29 f4       	brne	.+10     	; 0x1d82 <__mulsf3+0x5c>
    1d78:	92 30       	cpi	r25, 0x02	; 2
    1d7a:	81 f4       	brne	.+32     	; 0x1d9c <__mulsf3+0x76>
    1d7c:	8a e6       	ldi	r24, 0x6A	; 106
    1d7e:	90 e0       	ldi	r25, 0x00	; 0
    1d80:	c6 c0       	rjmp	.+396    	; 0x1f0e <__mulsf3+0x1e8>
    1d82:	92 30       	cpi	r25, 0x02	; 2
    1d84:	49 f4       	brne	.+18     	; 0x1d98 <__mulsf3+0x72>
    1d86:	20 e0       	ldi	r18, 0x00	; 0
    1d88:	9a 85       	ldd	r25, Y+10	; 0x0a
    1d8a:	8a 89       	ldd	r24, Y+18	; 0x12
    1d8c:	98 13       	cpse	r25, r24
    1d8e:	21 e0       	ldi	r18, 0x01	; 1
    1d90:	2a 87       	std	Y+10, r18	; 0x0a
    1d92:	ce 01       	movw	r24, r28
    1d94:	09 96       	adiw	r24, 0x09	; 9
    1d96:	bb c0       	rjmp	.+374    	; 0x1f0e <__mulsf3+0x1e8>
    1d98:	82 30       	cpi	r24, 0x02	; 2
    1d9a:	49 f4       	brne	.+18     	; 0x1dae <__mulsf3+0x88>
    1d9c:	20 e0       	ldi	r18, 0x00	; 0
    1d9e:	9a 85       	ldd	r25, Y+10	; 0x0a
    1da0:	8a 89       	ldd	r24, Y+18	; 0x12
    1da2:	98 13       	cpse	r25, r24
    1da4:	21 e0       	ldi	r18, 0x01	; 1
    1da6:	2a 8b       	std	Y+18, r18	; 0x12
    1da8:	ce 01       	movw	r24, r28
    1daa:	41 96       	adiw	r24, 0x11	; 17
    1dac:	b0 c0       	rjmp	.+352    	; 0x1f0e <__mulsf3+0x1e8>
    1dae:	2d 84       	ldd	r2, Y+13	; 0x0d
    1db0:	3e 84       	ldd	r3, Y+14	; 0x0e
    1db2:	4f 84       	ldd	r4, Y+15	; 0x0f
    1db4:	58 88       	ldd	r5, Y+16	; 0x10
    1db6:	6d 88       	ldd	r6, Y+21	; 0x15
    1db8:	7e 88       	ldd	r7, Y+22	; 0x16
    1dba:	8f 88       	ldd	r8, Y+23	; 0x17
    1dbc:	98 8c       	ldd	r9, Y+24	; 0x18
    1dbe:	ee 24       	eor	r14, r14
    1dc0:	ff 24       	eor	r15, r15
    1dc2:	87 01       	movw	r16, r14
    1dc4:	aa 24       	eor	r10, r10
    1dc6:	bb 24       	eor	r11, r11
    1dc8:	65 01       	movw	r12, r10
    1dca:	40 e0       	ldi	r20, 0x00	; 0
    1dcc:	50 e0       	ldi	r21, 0x00	; 0
    1dce:	60 e0       	ldi	r22, 0x00	; 0
    1dd0:	70 e0       	ldi	r23, 0x00	; 0
    1dd2:	e0 e0       	ldi	r30, 0x00	; 0
    1dd4:	f0 e0       	ldi	r31, 0x00	; 0
    1dd6:	c1 01       	movw	r24, r2
    1dd8:	81 70       	andi	r24, 0x01	; 1
    1dda:	90 70       	andi	r25, 0x00	; 0
    1ddc:	89 2b       	or	r24, r25
    1dde:	e9 f0       	breq	.+58     	; 0x1e1a <__mulsf3+0xf4>
    1de0:	e6 0c       	add	r14, r6
    1de2:	f7 1c       	adc	r15, r7
    1de4:	08 1d       	adc	r16, r8
    1de6:	19 1d       	adc	r17, r9
    1de8:	9a 01       	movw	r18, r20
    1dea:	ab 01       	movw	r20, r22
    1dec:	2a 0d       	add	r18, r10
    1dee:	3b 1d       	adc	r19, r11
    1df0:	4c 1d       	adc	r20, r12
    1df2:	5d 1d       	adc	r21, r13
    1df4:	80 e0       	ldi	r24, 0x00	; 0
    1df6:	90 e0       	ldi	r25, 0x00	; 0
    1df8:	a0 e0       	ldi	r26, 0x00	; 0
    1dfa:	b0 e0       	ldi	r27, 0x00	; 0
    1dfc:	e6 14       	cp	r14, r6
    1dfe:	f7 04       	cpc	r15, r7
    1e00:	08 05       	cpc	r16, r8
    1e02:	19 05       	cpc	r17, r9
    1e04:	20 f4       	brcc	.+8      	; 0x1e0e <__mulsf3+0xe8>
    1e06:	81 e0       	ldi	r24, 0x01	; 1
    1e08:	90 e0       	ldi	r25, 0x00	; 0
    1e0a:	a0 e0       	ldi	r26, 0x00	; 0
    1e0c:	b0 e0       	ldi	r27, 0x00	; 0
    1e0e:	ba 01       	movw	r22, r20
    1e10:	a9 01       	movw	r20, r18
    1e12:	48 0f       	add	r20, r24
    1e14:	59 1f       	adc	r21, r25
    1e16:	6a 1f       	adc	r22, r26
    1e18:	7b 1f       	adc	r23, r27
    1e1a:	aa 0c       	add	r10, r10
    1e1c:	bb 1c       	adc	r11, r11
    1e1e:	cc 1c       	adc	r12, r12
    1e20:	dd 1c       	adc	r13, r13
    1e22:	97 fe       	sbrs	r9, 7
    1e24:	08 c0       	rjmp	.+16     	; 0x1e36 <__mulsf3+0x110>
    1e26:	81 e0       	ldi	r24, 0x01	; 1
    1e28:	90 e0       	ldi	r25, 0x00	; 0
    1e2a:	a0 e0       	ldi	r26, 0x00	; 0
    1e2c:	b0 e0       	ldi	r27, 0x00	; 0
    1e2e:	a8 2a       	or	r10, r24
    1e30:	b9 2a       	or	r11, r25
    1e32:	ca 2a       	or	r12, r26
    1e34:	db 2a       	or	r13, r27
    1e36:	31 96       	adiw	r30, 0x01	; 1
    1e38:	e0 32       	cpi	r30, 0x20	; 32
    1e3a:	f1 05       	cpc	r31, r1
    1e3c:	49 f0       	breq	.+18     	; 0x1e50 <__mulsf3+0x12a>
    1e3e:	66 0c       	add	r6, r6
    1e40:	77 1c       	adc	r7, r7
    1e42:	88 1c       	adc	r8, r8
    1e44:	99 1c       	adc	r9, r9
    1e46:	56 94       	lsr	r5
    1e48:	47 94       	ror	r4
    1e4a:	37 94       	ror	r3
    1e4c:	27 94       	ror	r2
    1e4e:	c3 cf       	rjmp	.-122    	; 0x1dd6 <__mulsf3+0xb0>
    1e50:	fa 85       	ldd	r31, Y+10	; 0x0a
    1e52:	ea 89       	ldd	r30, Y+18	; 0x12
    1e54:	2b 89       	ldd	r18, Y+19	; 0x13
    1e56:	3c 89       	ldd	r19, Y+20	; 0x14
    1e58:	8b 85       	ldd	r24, Y+11	; 0x0b
    1e5a:	9c 85       	ldd	r25, Y+12	; 0x0c
    1e5c:	28 0f       	add	r18, r24
    1e5e:	39 1f       	adc	r19, r25
    1e60:	2e 5f       	subi	r18, 0xFE	; 254
    1e62:	3f 4f       	sbci	r19, 0xFF	; 255
    1e64:	17 c0       	rjmp	.+46     	; 0x1e94 <__mulsf3+0x16e>
    1e66:	ca 01       	movw	r24, r20
    1e68:	81 70       	andi	r24, 0x01	; 1
    1e6a:	90 70       	andi	r25, 0x00	; 0
    1e6c:	89 2b       	or	r24, r25
    1e6e:	61 f0       	breq	.+24     	; 0x1e88 <__mulsf3+0x162>
    1e70:	16 95       	lsr	r17
    1e72:	07 95       	ror	r16
    1e74:	f7 94       	ror	r15
    1e76:	e7 94       	ror	r14
    1e78:	80 e0       	ldi	r24, 0x00	; 0
    1e7a:	90 e0       	ldi	r25, 0x00	; 0
    1e7c:	a0 e0       	ldi	r26, 0x00	; 0
    1e7e:	b0 e8       	ldi	r27, 0x80	; 128
    1e80:	e8 2a       	or	r14, r24
    1e82:	f9 2a       	or	r15, r25
    1e84:	0a 2b       	or	r16, r26
    1e86:	1b 2b       	or	r17, r27
    1e88:	76 95       	lsr	r23
    1e8a:	67 95       	ror	r22
    1e8c:	57 95       	ror	r21
    1e8e:	47 95       	ror	r20
    1e90:	2f 5f       	subi	r18, 0xFF	; 255
    1e92:	3f 4f       	sbci	r19, 0xFF	; 255
    1e94:	77 fd       	sbrc	r23, 7
    1e96:	e7 cf       	rjmp	.-50     	; 0x1e66 <__mulsf3+0x140>
    1e98:	0c c0       	rjmp	.+24     	; 0x1eb2 <__mulsf3+0x18c>
    1e9a:	44 0f       	add	r20, r20
    1e9c:	55 1f       	adc	r21, r21
    1e9e:	66 1f       	adc	r22, r22
    1ea0:	77 1f       	adc	r23, r23
    1ea2:	17 fd       	sbrc	r17, 7
    1ea4:	41 60       	ori	r20, 0x01	; 1
    1ea6:	ee 0c       	add	r14, r14
    1ea8:	ff 1c       	adc	r15, r15
    1eaa:	00 1f       	adc	r16, r16
    1eac:	11 1f       	adc	r17, r17
    1eae:	21 50       	subi	r18, 0x01	; 1
    1eb0:	30 40       	sbci	r19, 0x00	; 0
    1eb2:	40 30       	cpi	r20, 0x00	; 0
    1eb4:	90 e0       	ldi	r25, 0x00	; 0
    1eb6:	59 07       	cpc	r21, r25
    1eb8:	90 e0       	ldi	r25, 0x00	; 0
    1eba:	69 07       	cpc	r22, r25
    1ebc:	90 e4       	ldi	r25, 0x40	; 64
    1ebe:	79 07       	cpc	r23, r25
    1ec0:	60 f3       	brcs	.-40     	; 0x1e9a <__mulsf3+0x174>
    1ec2:	2b 8f       	std	Y+27, r18	; 0x1b
    1ec4:	3c 8f       	std	Y+28, r19	; 0x1c
    1ec6:	db 01       	movw	r26, r22
    1ec8:	ca 01       	movw	r24, r20
    1eca:	8f 77       	andi	r24, 0x7F	; 127
    1ecc:	90 70       	andi	r25, 0x00	; 0
    1ece:	a0 70       	andi	r26, 0x00	; 0
    1ed0:	b0 70       	andi	r27, 0x00	; 0
    1ed2:	80 34       	cpi	r24, 0x40	; 64
    1ed4:	91 05       	cpc	r25, r1
    1ed6:	a1 05       	cpc	r26, r1
    1ed8:	b1 05       	cpc	r27, r1
    1eda:	61 f4       	brne	.+24     	; 0x1ef4 <__mulsf3+0x1ce>
    1edc:	47 fd       	sbrc	r20, 7
    1ede:	0a c0       	rjmp	.+20     	; 0x1ef4 <__mulsf3+0x1ce>
    1ee0:	e1 14       	cp	r14, r1
    1ee2:	f1 04       	cpc	r15, r1
    1ee4:	01 05       	cpc	r16, r1
    1ee6:	11 05       	cpc	r17, r1
    1ee8:	29 f0       	breq	.+10     	; 0x1ef4 <__mulsf3+0x1ce>
    1eea:	40 5c       	subi	r20, 0xC0	; 192
    1eec:	5f 4f       	sbci	r21, 0xFF	; 255
    1eee:	6f 4f       	sbci	r22, 0xFF	; 255
    1ef0:	7f 4f       	sbci	r23, 0xFF	; 255
    1ef2:	40 78       	andi	r20, 0x80	; 128
    1ef4:	1a 8e       	std	Y+26, r1	; 0x1a
    1ef6:	fe 17       	cp	r31, r30
    1ef8:	11 f0       	breq	.+4      	; 0x1efe <__mulsf3+0x1d8>
    1efa:	81 e0       	ldi	r24, 0x01	; 1
    1efc:	8a 8f       	std	Y+26, r24	; 0x1a
    1efe:	4d 8f       	std	Y+29, r20	; 0x1d
    1f00:	5e 8f       	std	Y+30, r21	; 0x1e
    1f02:	6f 8f       	std	Y+31, r22	; 0x1f
    1f04:	78 a3       	std	Y+32, r23	; 0x20
    1f06:	83 e0       	ldi	r24, 0x03	; 3
    1f08:	89 8f       	std	Y+25, r24	; 0x19
    1f0a:	ce 01       	movw	r24, r28
    1f0c:	49 96       	adiw	r24, 0x19	; 25
    1f0e:	0e 94 6a 11 	call	0x22d4	; 0x22d4 <__pack_f>
    1f12:	a0 96       	adiw	r28, 0x20	; 32
    1f14:	e2 e1       	ldi	r30, 0x12	; 18
    1f16:	0c 94 7e 13 	jmp	0x26fc	; 0x26fc <__epilogue_restores__>

00001f1a <__divsf3>:
    1f1a:	a8 e1       	ldi	r26, 0x18	; 24
    1f1c:	b0 e0       	ldi	r27, 0x00	; 0
    1f1e:	e3 e9       	ldi	r30, 0x93	; 147
    1f20:	ff e0       	ldi	r31, 0x0F	; 15
    1f22:	0c 94 6a 13 	jmp	0x26d4	; 0x26d4 <__prologue_saves__+0x10>
    1f26:	69 83       	std	Y+1, r22	; 0x01
    1f28:	7a 83       	std	Y+2, r23	; 0x02
    1f2a:	8b 83       	std	Y+3, r24	; 0x03
    1f2c:	9c 83       	std	Y+4, r25	; 0x04
    1f2e:	2d 83       	std	Y+5, r18	; 0x05
    1f30:	3e 83       	std	Y+6, r19	; 0x06
    1f32:	4f 83       	std	Y+7, r20	; 0x07
    1f34:	58 87       	std	Y+8, r21	; 0x08
    1f36:	b9 e0       	ldi	r27, 0x09	; 9
    1f38:	eb 2e       	mov	r14, r27
    1f3a:	f1 2c       	mov	r15, r1
    1f3c:	ec 0e       	add	r14, r28
    1f3e:	fd 1e       	adc	r15, r29
    1f40:	ce 01       	movw	r24, r28
    1f42:	01 96       	adiw	r24, 0x01	; 1
    1f44:	b7 01       	movw	r22, r14
    1f46:	0e 94 3f 12 	call	0x247e	; 0x247e <__unpack_f>
    1f4a:	8e 01       	movw	r16, r28
    1f4c:	0f 5e       	subi	r16, 0xEF	; 239
    1f4e:	1f 4f       	sbci	r17, 0xFF	; 255
    1f50:	ce 01       	movw	r24, r28
    1f52:	05 96       	adiw	r24, 0x05	; 5
    1f54:	b8 01       	movw	r22, r16
    1f56:	0e 94 3f 12 	call	0x247e	; 0x247e <__unpack_f>
    1f5a:	29 85       	ldd	r18, Y+9	; 0x09
    1f5c:	22 30       	cpi	r18, 0x02	; 2
    1f5e:	08 f4       	brcc	.+2      	; 0x1f62 <__divsf3+0x48>
    1f60:	7e c0       	rjmp	.+252    	; 0x205e <__divsf3+0x144>
    1f62:	39 89       	ldd	r19, Y+17	; 0x11
    1f64:	32 30       	cpi	r19, 0x02	; 2
    1f66:	10 f4       	brcc	.+4      	; 0x1f6c <__divsf3+0x52>
    1f68:	b8 01       	movw	r22, r16
    1f6a:	7c c0       	rjmp	.+248    	; 0x2064 <__divsf3+0x14a>
    1f6c:	8a 85       	ldd	r24, Y+10	; 0x0a
    1f6e:	9a 89       	ldd	r25, Y+18	; 0x12
    1f70:	89 27       	eor	r24, r25
    1f72:	8a 87       	std	Y+10, r24	; 0x0a
    1f74:	24 30       	cpi	r18, 0x04	; 4
    1f76:	11 f0       	breq	.+4      	; 0x1f7c <__divsf3+0x62>
    1f78:	22 30       	cpi	r18, 0x02	; 2
    1f7a:	31 f4       	brne	.+12     	; 0x1f88 <__divsf3+0x6e>
    1f7c:	23 17       	cp	r18, r19
    1f7e:	09 f0       	breq	.+2      	; 0x1f82 <__divsf3+0x68>
    1f80:	6e c0       	rjmp	.+220    	; 0x205e <__divsf3+0x144>
    1f82:	6a e6       	ldi	r22, 0x6A	; 106
    1f84:	70 e0       	ldi	r23, 0x00	; 0
    1f86:	6e c0       	rjmp	.+220    	; 0x2064 <__divsf3+0x14a>
    1f88:	34 30       	cpi	r19, 0x04	; 4
    1f8a:	39 f4       	brne	.+14     	; 0x1f9a <__divsf3+0x80>
    1f8c:	1d 86       	std	Y+13, r1	; 0x0d
    1f8e:	1e 86       	std	Y+14, r1	; 0x0e
    1f90:	1f 86       	std	Y+15, r1	; 0x0f
    1f92:	18 8a       	std	Y+16, r1	; 0x10
    1f94:	1c 86       	std	Y+12, r1	; 0x0c
    1f96:	1b 86       	std	Y+11, r1	; 0x0b
    1f98:	04 c0       	rjmp	.+8      	; 0x1fa2 <__divsf3+0x88>
    1f9a:	32 30       	cpi	r19, 0x02	; 2
    1f9c:	21 f4       	brne	.+8      	; 0x1fa6 <__divsf3+0x8c>
    1f9e:	84 e0       	ldi	r24, 0x04	; 4
    1fa0:	89 87       	std	Y+9, r24	; 0x09
    1fa2:	b7 01       	movw	r22, r14
    1fa4:	5f c0       	rjmp	.+190    	; 0x2064 <__divsf3+0x14a>
    1fa6:	2b 85       	ldd	r18, Y+11	; 0x0b
    1fa8:	3c 85       	ldd	r19, Y+12	; 0x0c
    1faa:	8b 89       	ldd	r24, Y+19	; 0x13
    1fac:	9c 89       	ldd	r25, Y+20	; 0x14
    1fae:	28 1b       	sub	r18, r24
    1fb0:	39 0b       	sbc	r19, r25
    1fb2:	3c 87       	std	Y+12, r19	; 0x0c
    1fb4:	2b 87       	std	Y+11, r18	; 0x0b
    1fb6:	ed 84       	ldd	r14, Y+13	; 0x0d
    1fb8:	fe 84       	ldd	r15, Y+14	; 0x0e
    1fba:	0f 85       	ldd	r16, Y+15	; 0x0f
    1fbc:	18 89       	ldd	r17, Y+16	; 0x10
    1fbe:	ad 88       	ldd	r10, Y+21	; 0x15
    1fc0:	be 88       	ldd	r11, Y+22	; 0x16
    1fc2:	cf 88       	ldd	r12, Y+23	; 0x17
    1fc4:	d8 8c       	ldd	r13, Y+24	; 0x18
    1fc6:	ea 14       	cp	r14, r10
    1fc8:	fb 04       	cpc	r15, r11
    1fca:	0c 05       	cpc	r16, r12
    1fcc:	1d 05       	cpc	r17, r13
    1fce:	40 f4       	brcc	.+16     	; 0x1fe0 <__divsf3+0xc6>
    1fd0:	ee 0c       	add	r14, r14
    1fd2:	ff 1c       	adc	r15, r15
    1fd4:	00 1f       	adc	r16, r16
    1fd6:	11 1f       	adc	r17, r17
    1fd8:	21 50       	subi	r18, 0x01	; 1
    1fda:	30 40       	sbci	r19, 0x00	; 0
    1fdc:	3c 87       	std	Y+12, r19	; 0x0c
    1fde:	2b 87       	std	Y+11, r18	; 0x0b
    1fe0:	20 e0       	ldi	r18, 0x00	; 0
    1fe2:	30 e0       	ldi	r19, 0x00	; 0
    1fe4:	40 e0       	ldi	r20, 0x00	; 0
    1fe6:	50 e0       	ldi	r21, 0x00	; 0
    1fe8:	80 e0       	ldi	r24, 0x00	; 0
    1fea:	90 e0       	ldi	r25, 0x00	; 0
    1fec:	a0 e0       	ldi	r26, 0x00	; 0
    1fee:	b0 e4       	ldi	r27, 0x40	; 64
    1ff0:	60 e0       	ldi	r22, 0x00	; 0
    1ff2:	70 e0       	ldi	r23, 0x00	; 0
    1ff4:	ea 14       	cp	r14, r10
    1ff6:	fb 04       	cpc	r15, r11
    1ff8:	0c 05       	cpc	r16, r12
    1ffa:	1d 05       	cpc	r17, r13
    1ffc:	40 f0       	brcs	.+16     	; 0x200e <__divsf3+0xf4>
    1ffe:	28 2b       	or	r18, r24
    2000:	39 2b       	or	r19, r25
    2002:	4a 2b       	or	r20, r26
    2004:	5b 2b       	or	r21, r27
    2006:	ea 18       	sub	r14, r10
    2008:	fb 08       	sbc	r15, r11
    200a:	0c 09       	sbc	r16, r12
    200c:	1d 09       	sbc	r17, r13
    200e:	b6 95       	lsr	r27
    2010:	a7 95       	ror	r26
    2012:	97 95       	ror	r25
    2014:	87 95       	ror	r24
    2016:	ee 0c       	add	r14, r14
    2018:	ff 1c       	adc	r15, r15
    201a:	00 1f       	adc	r16, r16
    201c:	11 1f       	adc	r17, r17
    201e:	6f 5f       	subi	r22, 0xFF	; 255
    2020:	7f 4f       	sbci	r23, 0xFF	; 255
    2022:	6f 31       	cpi	r22, 0x1F	; 31
    2024:	71 05       	cpc	r23, r1
    2026:	31 f7       	brne	.-52     	; 0x1ff4 <__divsf3+0xda>
    2028:	da 01       	movw	r26, r20
    202a:	c9 01       	movw	r24, r18
    202c:	8f 77       	andi	r24, 0x7F	; 127
    202e:	90 70       	andi	r25, 0x00	; 0
    2030:	a0 70       	andi	r26, 0x00	; 0
    2032:	b0 70       	andi	r27, 0x00	; 0
    2034:	80 34       	cpi	r24, 0x40	; 64
    2036:	91 05       	cpc	r25, r1
    2038:	a1 05       	cpc	r26, r1
    203a:	b1 05       	cpc	r27, r1
    203c:	61 f4       	brne	.+24     	; 0x2056 <__divsf3+0x13c>
    203e:	27 fd       	sbrc	r18, 7
    2040:	0a c0       	rjmp	.+20     	; 0x2056 <__divsf3+0x13c>
    2042:	e1 14       	cp	r14, r1
    2044:	f1 04       	cpc	r15, r1
    2046:	01 05       	cpc	r16, r1
    2048:	11 05       	cpc	r17, r1
    204a:	29 f0       	breq	.+10     	; 0x2056 <__divsf3+0x13c>
    204c:	20 5c       	subi	r18, 0xC0	; 192
    204e:	3f 4f       	sbci	r19, 0xFF	; 255
    2050:	4f 4f       	sbci	r20, 0xFF	; 255
    2052:	5f 4f       	sbci	r21, 0xFF	; 255
    2054:	20 78       	andi	r18, 0x80	; 128
    2056:	2d 87       	std	Y+13, r18	; 0x0d
    2058:	3e 87       	std	Y+14, r19	; 0x0e
    205a:	4f 87       	std	Y+15, r20	; 0x0f
    205c:	58 8b       	std	Y+16, r21	; 0x10
    205e:	be 01       	movw	r22, r28
    2060:	67 5f       	subi	r22, 0xF7	; 247
    2062:	7f 4f       	sbci	r23, 0xFF	; 255
    2064:	cb 01       	movw	r24, r22
    2066:	0e 94 6a 11 	call	0x22d4	; 0x22d4 <__pack_f>
    206a:	68 96       	adiw	r28, 0x18	; 24
    206c:	ea e0       	ldi	r30, 0x0A	; 10
    206e:	0c 94 86 13 	jmp	0x270c	; 0x270c <__epilogue_restores__+0x10>

00002072 <__gesf2>:
    2072:	a8 e1       	ldi	r26, 0x18	; 24
    2074:	b0 e0       	ldi	r27, 0x00	; 0
    2076:	ef e3       	ldi	r30, 0x3F	; 63
    2078:	f0 e1       	ldi	r31, 0x10	; 16
    207a:	0c 94 6e 13 	jmp	0x26dc	; 0x26dc <__prologue_saves__+0x18>
    207e:	69 83       	std	Y+1, r22	; 0x01
    2080:	7a 83       	std	Y+2, r23	; 0x02
    2082:	8b 83       	std	Y+3, r24	; 0x03
    2084:	9c 83       	std	Y+4, r25	; 0x04
    2086:	2d 83       	std	Y+5, r18	; 0x05
    2088:	3e 83       	std	Y+6, r19	; 0x06
    208a:	4f 83       	std	Y+7, r20	; 0x07
    208c:	58 87       	std	Y+8, r21	; 0x08
    208e:	89 e0       	ldi	r24, 0x09	; 9
    2090:	e8 2e       	mov	r14, r24
    2092:	f1 2c       	mov	r15, r1
    2094:	ec 0e       	add	r14, r28
    2096:	fd 1e       	adc	r15, r29
    2098:	ce 01       	movw	r24, r28
    209a:	01 96       	adiw	r24, 0x01	; 1
    209c:	b7 01       	movw	r22, r14
    209e:	0e 94 3f 12 	call	0x247e	; 0x247e <__unpack_f>
    20a2:	8e 01       	movw	r16, r28
    20a4:	0f 5e       	subi	r16, 0xEF	; 239
    20a6:	1f 4f       	sbci	r17, 0xFF	; 255
    20a8:	ce 01       	movw	r24, r28
    20aa:	05 96       	adiw	r24, 0x05	; 5
    20ac:	b8 01       	movw	r22, r16
    20ae:	0e 94 3f 12 	call	0x247e	; 0x247e <__unpack_f>
    20b2:	89 85       	ldd	r24, Y+9	; 0x09
    20b4:	82 30       	cpi	r24, 0x02	; 2
    20b6:	40 f0       	brcs	.+16     	; 0x20c8 <__gesf2+0x56>
    20b8:	89 89       	ldd	r24, Y+17	; 0x11
    20ba:	82 30       	cpi	r24, 0x02	; 2
    20bc:	28 f0       	brcs	.+10     	; 0x20c8 <__gesf2+0x56>
    20be:	c7 01       	movw	r24, r14
    20c0:	b8 01       	movw	r22, r16
    20c2:	0e 94 b7 12 	call	0x256e	; 0x256e <__fpcmp_parts_f>
    20c6:	01 c0       	rjmp	.+2      	; 0x20ca <__gesf2+0x58>
    20c8:	8f ef       	ldi	r24, 0xFF	; 255
    20ca:	68 96       	adiw	r28, 0x18	; 24
    20cc:	e6 e0       	ldi	r30, 0x06	; 6
    20ce:	0c 94 8a 13 	jmp	0x2714	; 0x2714 <__epilogue_restores__+0x18>

000020d2 <__floatsisf>:
    20d2:	a8 e0       	ldi	r26, 0x08	; 8
    20d4:	b0 e0       	ldi	r27, 0x00	; 0
    20d6:	ef e6       	ldi	r30, 0x6F	; 111
    20d8:	f0 e1       	ldi	r31, 0x10	; 16
    20da:	0c 94 6b 13 	jmp	0x26d6	; 0x26d6 <__prologue_saves__+0x12>
    20de:	9b 01       	movw	r18, r22
    20e0:	ac 01       	movw	r20, r24
    20e2:	83 e0       	ldi	r24, 0x03	; 3
    20e4:	89 83       	std	Y+1, r24	; 0x01
    20e6:	da 01       	movw	r26, r20
    20e8:	c9 01       	movw	r24, r18
    20ea:	88 27       	eor	r24, r24
    20ec:	b7 fd       	sbrc	r27, 7
    20ee:	83 95       	inc	r24
    20f0:	99 27       	eor	r25, r25
    20f2:	aa 27       	eor	r26, r26
    20f4:	bb 27       	eor	r27, r27
    20f6:	b8 2e       	mov	r11, r24
    20f8:	21 15       	cp	r18, r1
    20fa:	31 05       	cpc	r19, r1
    20fc:	41 05       	cpc	r20, r1
    20fe:	51 05       	cpc	r21, r1
    2100:	19 f4       	brne	.+6      	; 0x2108 <__floatsisf+0x36>
    2102:	82 e0       	ldi	r24, 0x02	; 2
    2104:	89 83       	std	Y+1, r24	; 0x01
    2106:	3a c0       	rjmp	.+116    	; 0x217c <__floatsisf+0xaa>
    2108:	88 23       	and	r24, r24
    210a:	a9 f0       	breq	.+42     	; 0x2136 <__floatsisf+0x64>
    210c:	20 30       	cpi	r18, 0x00	; 0
    210e:	80 e0       	ldi	r24, 0x00	; 0
    2110:	38 07       	cpc	r19, r24
    2112:	80 e0       	ldi	r24, 0x00	; 0
    2114:	48 07       	cpc	r20, r24
    2116:	80 e8       	ldi	r24, 0x80	; 128
    2118:	58 07       	cpc	r21, r24
    211a:	29 f4       	brne	.+10     	; 0x2126 <__floatsisf+0x54>
    211c:	60 e0       	ldi	r22, 0x00	; 0
    211e:	70 e0       	ldi	r23, 0x00	; 0
    2120:	80 e0       	ldi	r24, 0x00	; 0
    2122:	9f ec       	ldi	r25, 0xCF	; 207
    2124:	30 c0       	rjmp	.+96     	; 0x2186 <__floatsisf+0xb4>
    2126:	ee 24       	eor	r14, r14
    2128:	ff 24       	eor	r15, r15
    212a:	87 01       	movw	r16, r14
    212c:	e2 1a       	sub	r14, r18
    212e:	f3 0a       	sbc	r15, r19
    2130:	04 0b       	sbc	r16, r20
    2132:	15 0b       	sbc	r17, r21
    2134:	02 c0       	rjmp	.+4      	; 0x213a <__floatsisf+0x68>
    2136:	79 01       	movw	r14, r18
    2138:	8a 01       	movw	r16, r20
    213a:	8e e1       	ldi	r24, 0x1E	; 30
    213c:	c8 2e       	mov	r12, r24
    213e:	d1 2c       	mov	r13, r1
    2140:	dc 82       	std	Y+4, r13	; 0x04
    2142:	cb 82       	std	Y+3, r12	; 0x03
    2144:	ed 82       	std	Y+5, r14	; 0x05
    2146:	fe 82       	std	Y+6, r15	; 0x06
    2148:	0f 83       	std	Y+7, r16	; 0x07
    214a:	18 87       	std	Y+8, r17	; 0x08
    214c:	c8 01       	movw	r24, r16
    214e:	b7 01       	movw	r22, r14
    2150:	0e 94 1b 11 	call	0x2236	; 0x2236 <__clzsi2>
    2154:	01 97       	sbiw	r24, 0x01	; 1
    2156:	18 16       	cp	r1, r24
    2158:	19 06       	cpc	r1, r25
    215a:	84 f4       	brge	.+32     	; 0x217c <__floatsisf+0xaa>
    215c:	08 2e       	mov	r0, r24
    215e:	04 c0       	rjmp	.+8      	; 0x2168 <__floatsisf+0x96>
    2160:	ee 0c       	add	r14, r14
    2162:	ff 1c       	adc	r15, r15
    2164:	00 1f       	adc	r16, r16
    2166:	11 1f       	adc	r17, r17
    2168:	0a 94       	dec	r0
    216a:	d2 f7       	brpl	.-12     	; 0x2160 <__floatsisf+0x8e>
    216c:	ed 82       	std	Y+5, r14	; 0x05
    216e:	fe 82       	std	Y+6, r15	; 0x06
    2170:	0f 83       	std	Y+7, r16	; 0x07
    2172:	18 87       	std	Y+8, r17	; 0x08
    2174:	c8 1a       	sub	r12, r24
    2176:	d9 0a       	sbc	r13, r25
    2178:	dc 82       	std	Y+4, r13	; 0x04
    217a:	cb 82       	std	Y+3, r12	; 0x03
    217c:	ba 82       	std	Y+2, r11	; 0x02
    217e:	ce 01       	movw	r24, r28
    2180:	01 96       	adiw	r24, 0x01	; 1
    2182:	0e 94 6a 11 	call	0x22d4	; 0x22d4 <__pack_f>
    2186:	28 96       	adiw	r28, 0x08	; 8
    2188:	e9 e0       	ldi	r30, 0x09	; 9
    218a:	0c 94 87 13 	jmp	0x270e	; 0x270e <__epilogue_restores__+0x12>

0000218e <__fixsfsi>:
    218e:	ac e0       	ldi	r26, 0x0C	; 12
    2190:	b0 e0       	ldi	r27, 0x00	; 0
    2192:	ed ec       	ldi	r30, 0xCD	; 205
    2194:	f0 e1       	ldi	r31, 0x10	; 16
    2196:	0c 94 72 13 	jmp	0x26e4	; 0x26e4 <__prologue_saves__+0x20>
    219a:	69 83       	std	Y+1, r22	; 0x01
    219c:	7a 83       	std	Y+2, r23	; 0x02
    219e:	8b 83       	std	Y+3, r24	; 0x03
    21a0:	9c 83       	std	Y+4, r25	; 0x04
    21a2:	ce 01       	movw	r24, r28
    21a4:	01 96       	adiw	r24, 0x01	; 1
    21a6:	be 01       	movw	r22, r28
    21a8:	6b 5f       	subi	r22, 0xFB	; 251
    21aa:	7f 4f       	sbci	r23, 0xFF	; 255
    21ac:	0e 94 3f 12 	call	0x247e	; 0x247e <__unpack_f>
    21b0:	8d 81       	ldd	r24, Y+5	; 0x05
    21b2:	82 30       	cpi	r24, 0x02	; 2
    21b4:	61 f1       	breq	.+88     	; 0x220e <__fixsfsi+0x80>
    21b6:	82 30       	cpi	r24, 0x02	; 2
    21b8:	50 f1       	brcs	.+84     	; 0x220e <__fixsfsi+0x80>
    21ba:	84 30       	cpi	r24, 0x04	; 4
    21bc:	21 f4       	brne	.+8      	; 0x21c6 <__fixsfsi+0x38>
    21be:	8e 81       	ldd	r24, Y+6	; 0x06
    21c0:	88 23       	and	r24, r24
    21c2:	51 f1       	breq	.+84     	; 0x2218 <__fixsfsi+0x8a>
    21c4:	2e c0       	rjmp	.+92     	; 0x2222 <__fixsfsi+0x94>
    21c6:	2f 81       	ldd	r18, Y+7	; 0x07
    21c8:	38 85       	ldd	r19, Y+8	; 0x08
    21ca:	37 fd       	sbrc	r19, 7
    21cc:	20 c0       	rjmp	.+64     	; 0x220e <__fixsfsi+0x80>
    21ce:	6e 81       	ldd	r22, Y+6	; 0x06
    21d0:	2f 31       	cpi	r18, 0x1F	; 31
    21d2:	31 05       	cpc	r19, r1
    21d4:	1c f0       	brlt	.+6      	; 0x21dc <__fixsfsi+0x4e>
    21d6:	66 23       	and	r22, r22
    21d8:	f9 f0       	breq	.+62     	; 0x2218 <__fixsfsi+0x8a>
    21da:	23 c0       	rjmp	.+70     	; 0x2222 <__fixsfsi+0x94>
    21dc:	8e e1       	ldi	r24, 0x1E	; 30
    21de:	90 e0       	ldi	r25, 0x00	; 0
    21e0:	82 1b       	sub	r24, r18
    21e2:	93 0b       	sbc	r25, r19
    21e4:	29 85       	ldd	r18, Y+9	; 0x09
    21e6:	3a 85       	ldd	r19, Y+10	; 0x0a
    21e8:	4b 85       	ldd	r20, Y+11	; 0x0b
    21ea:	5c 85       	ldd	r21, Y+12	; 0x0c
    21ec:	04 c0       	rjmp	.+8      	; 0x21f6 <__fixsfsi+0x68>
    21ee:	56 95       	lsr	r21
    21f0:	47 95       	ror	r20
    21f2:	37 95       	ror	r19
    21f4:	27 95       	ror	r18
    21f6:	8a 95       	dec	r24
    21f8:	d2 f7       	brpl	.-12     	; 0x21ee <__fixsfsi+0x60>
    21fa:	66 23       	and	r22, r22
    21fc:	b1 f0       	breq	.+44     	; 0x222a <__fixsfsi+0x9c>
    21fe:	50 95       	com	r21
    2200:	40 95       	com	r20
    2202:	30 95       	com	r19
    2204:	21 95       	neg	r18
    2206:	3f 4f       	sbci	r19, 0xFF	; 255
    2208:	4f 4f       	sbci	r20, 0xFF	; 255
    220a:	5f 4f       	sbci	r21, 0xFF	; 255
    220c:	0e c0       	rjmp	.+28     	; 0x222a <__fixsfsi+0x9c>
    220e:	20 e0       	ldi	r18, 0x00	; 0
    2210:	30 e0       	ldi	r19, 0x00	; 0
    2212:	40 e0       	ldi	r20, 0x00	; 0
    2214:	50 e0       	ldi	r21, 0x00	; 0
    2216:	09 c0       	rjmp	.+18     	; 0x222a <__fixsfsi+0x9c>
    2218:	2f ef       	ldi	r18, 0xFF	; 255
    221a:	3f ef       	ldi	r19, 0xFF	; 255
    221c:	4f ef       	ldi	r20, 0xFF	; 255
    221e:	5f e7       	ldi	r21, 0x7F	; 127
    2220:	04 c0       	rjmp	.+8      	; 0x222a <__fixsfsi+0x9c>
    2222:	20 e0       	ldi	r18, 0x00	; 0
    2224:	30 e0       	ldi	r19, 0x00	; 0
    2226:	40 e0       	ldi	r20, 0x00	; 0
    2228:	50 e8       	ldi	r21, 0x80	; 128
    222a:	b9 01       	movw	r22, r18
    222c:	ca 01       	movw	r24, r20
    222e:	2c 96       	adiw	r28, 0x0c	; 12
    2230:	e2 e0       	ldi	r30, 0x02	; 2
    2232:	0c 94 8e 13 	jmp	0x271c	; 0x271c <__epilogue_restores__+0x20>

00002236 <__clzsi2>:
    2236:	ef 92       	push	r14
    2238:	ff 92       	push	r15
    223a:	0f 93       	push	r16
    223c:	1f 93       	push	r17
    223e:	7b 01       	movw	r14, r22
    2240:	8c 01       	movw	r16, r24
    2242:	80 e0       	ldi	r24, 0x00	; 0
    2244:	e8 16       	cp	r14, r24
    2246:	80 e0       	ldi	r24, 0x00	; 0
    2248:	f8 06       	cpc	r15, r24
    224a:	81 e0       	ldi	r24, 0x01	; 1
    224c:	08 07       	cpc	r16, r24
    224e:	80 e0       	ldi	r24, 0x00	; 0
    2250:	18 07       	cpc	r17, r24
    2252:	88 f4       	brcc	.+34     	; 0x2276 <__clzsi2+0x40>
    2254:	8f ef       	ldi	r24, 0xFF	; 255
    2256:	e8 16       	cp	r14, r24
    2258:	f1 04       	cpc	r15, r1
    225a:	01 05       	cpc	r16, r1
    225c:	11 05       	cpc	r17, r1
    225e:	31 f0       	breq	.+12     	; 0x226c <__clzsi2+0x36>
    2260:	28 f0       	brcs	.+10     	; 0x226c <__clzsi2+0x36>
    2262:	88 e0       	ldi	r24, 0x08	; 8
    2264:	90 e0       	ldi	r25, 0x00	; 0
    2266:	a0 e0       	ldi	r26, 0x00	; 0
    2268:	b0 e0       	ldi	r27, 0x00	; 0
    226a:	17 c0       	rjmp	.+46     	; 0x229a <__clzsi2+0x64>
    226c:	80 e0       	ldi	r24, 0x00	; 0
    226e:	90 e0       	ldi	r25, 0x00	; 0
    2270:	a0 e0       	ldi	r26, 0x00	; 0
    2272:	b0 e0       	ldi	r27, 0x00	; 0
    2274:	12 c0       	rjmp	.+36     	; 0x229a <__clzsi2+0x64>
    2276:	80 e0       	ldi	r24, 0x00	; 0
    2278:	e8 16       	cp	r14, r24
    227a:	80 e0       	ldi	r24, 0x00	; 0
    227c:	f8 06       	cpc	r15, r24
    227e:	80 e0       	ldi	r24, 0x00	; 0
    2280:	08 07       	cpc	r16, r24
    2282:	81 e0       	ldi	r24, 0x01	; 1
    2284:	18 07       	cpc	r17, r24
    2286:	28 f0       	brcs	.+10     	; 0x2292 <__clzsi2+0x5c>
    2288:	88 e1       	ldi	r24, 0x18	; 24
    228a:	90 e0       	ldi	r25, 0x00	; 0
    228c:	a0 e0       	ldi	r26, 0x00	; 0
    228e:	b0 e0       	ldi	r27, 0x00	; 0
    2290:	04 c0       	rjmp	.+8      	; 0x229a <__clzsi2+0x64>
    2292:	80 e1       	ldi	r24, 0x10	; 16
    2294:	90 e0       	ldi	r25, 0x00	; 0
    2296:	a0 e0       	ldi	r26, 0x00	; 0
    2298:	b0 e0       	ldi	r27, 0x00	; 0
    229a:	20 e2       	ldi	r18, 0x20	; 32
    229c:	30 e0       	ldi	r19, 0x00	; 0
    229e:	40 e0       	ldi	r20, 0x00	; 0
    22a0:	50 e0       	ldi	r21, 0x00	; 0
    22a2:	28 1b       	sub	r18, r24
    22a4:	39 0b       	sbc	r19, r25
    22a6:	4a 0b       	sbc	r20, r26
    22a8:	5b 0b       	sbc	r21, r27
    22aa:	04 c0       	rjmp	.+8      	; 0x22b4 <__clzsi2+0x7e>
    22ac:	16 95       	lsr	r17
    22ae:	07 95       	ror	r16
    22b0:	f7 94       	ror	r15
    22b2:	e7 94       	ror	r14
    22b4:	8a 95       	dec	r24
    22b6:	d2 f7       	brpl	.-12     	; 0x22ac <__clzsi2+0x76>
    22b8:	f7 01       	movw	r30, r14
    22ba:	ee 58       	subi	r30, 0x8E	; 142
    22bc:	ff 4f       	sbci	r31, 0xFF	; 255
    22be:	80 81       	ld	r24, Z
    22c0:	28 1b       	sub	r18, r24
    22c2:	31 09       	sbc	r19, r1
    22c4:	41 09       	sbc	r20, r1
    22c6:	51 09       	sbc	r21, r1
    22c8:	c9 01       	movw	r24, r18
    22ca:	1f 91       	pop	r17
    22cc:	0f 91       	pop	r16
    22ce:	ff 90       	pop	r15
    22d0:	ef 90       	pop	r14
    22d2:	08 95       	ret

000022d4 <__pack_f>:
    22d4:	df 92       	push	r13
    22d6:	ef 92       	push	r14
    22d8:	ff 92       	push	r15
    22da:	0f 93       	push	r16
    22dc:	1f 93       	push	r17
    22de:	fc 01       	movw	r30, r24
    22e0:	e4 80       	ldd	r14, Z+4	; 0x04
    22e2:	f5 80       	ldd	r15, Z+5	; 0x05
    22e4:	06 81       	ldd	r16, Z+6	; 0x06
    22e6:	17 81       	ldd	r17, Z+7	; 0x07
    22e8:	d1 80       	ldd	r13, Z+1	; 0x01
    22ea:	80 81       	ld	r24, Z
    22ec:	82 30       	cpi	r24, 0x02	; 2
    22ee:	48 f4       	brcc	.+18     	; 0x2302 <__pack_f+0x2e>
    22f0:	80 e0       	ldi	r24, 0x00	; 0
    22f2:	90 e0       	ldi	r25, 0x00	; 0
    22f4:	a0 e1       	ldi	r26, 0x10	; 16
    22f6:	b0 e0       	ldi	r27, 0x00	; 0
    22f8:	e8 2a       	or	r14, r24
    22fa:	f9 2a       	or	r15, r25
    22fc:	0a 2b       	or	r16, r26
    22fe:	1b 2b       	or	r17, r27
    2300:	a5 c0       	rjmp	.+330    	; 0x244c <__pack_f+0x178>
    2302:	84 30       	cpi	r24, 0x04	; 4
    2304:	09 f4       	brne	.+2      	; 0x2308 <__pack_f+0x34>
    2306:	9f c0       	rjmp	.+318    	; 0x2446 <__pack_f+0x172>
    2308:	82 30       	cpi	r24, 0x02	; 2
    230a:	21 f4       	brne	.+8      	; 0x2314 <__pack_f+0x40>
    230c:	ee 24       	eor	r14, r14
    230e:	ff 24       	eor	r15, r15
    2310:	87 01       	movw	r16, r14
    2312:	05 c0       	rjmp	.+10     	; 0x231e <__pack_f+0x4a>
    2314:	e1 14       	cp	r14, r1
    2316:	f1 04       	cpc	r15, r1
    2318:	01 05       	cpc	r16, r1
    231a:	11 05       	cpc	r17, r1
    231c:	19 f4       	brne	.+6      	; 0x2324 <__pack_f+0x50>
    231e:	e0 e0       	ldi	r30, 0x00	; 0
    2320:	f0 e0       	ldi	r31, 0x00	; 0
    2322:	96 c0       	rjmp	.+300    	; 0x2450 <__pack_f+0x17c>
    2324:	62 81       	ldd	r22, Z+2	; 0x02
    2326:	73 81       	ldd	r23, Z+3	; 0x03
    2328:	9f ef       	ldi	r25, 0xFF	; 255
    232a:	62 38       	cpi	r22, 0x82	; 130
    232c:	79 07       	cpc	r23, r25
    232e:	0c f0       	brlt	.+2      	; 0x2332 <__pack_f+0x5e>
    2330:	5b c0       	rjmp	.+182    	; 0x23e8 <__pack_f+0x114>
    2332:	22 e8       	ldi	r18, 0x82	; 130
    2334:	3f ef       	ldi	r19, 0xFF	; 255
    2336:	26 1b       	sub	r18, r22
    2338:	37 0b       	sbc	r19, r23
    233a:	2a 31       	cpi	r18, 0x1A	; 26
    233c:	31 05       	cpc	r19, r1
    233e:	2c f0       	brlt	.+10     	; 0x234a <__pack_f+0x76>
    2340:	20 e0       	ldi	r18, 0x00	; 0
    2342:	30 e0       	ldi	r19, 0x00	; 0
    2344:	40 e0       	ldi	r20, 0x00	; 0
    2346:	50 e0       	ldi	r21, 0x00	; 0
    2348:	2a c0       	rjmp	.+84     	; 0x239e <__pack_f+0xca>
    234a:	b8 01       	movw	r22, r16
    234c:	a7 01       	movw	r20, r14
    234e:	02 2e       	mov	r0, r18
    2350:	04 c0       	rjmp	.+8      	; 0x235a <__pack_f+0x86>
    2352:	76 95       	lsr	r23
    2354:	67 95       	ror	r22
    2356:	57 95       	ror	r21
    2358:	47 95       	ror	r20
    235a:	0a 94       	dec	r0
    235c:	d2 f7       	brpl	.-12     	; 0x2352 <__pack_f+0x7e>
    235e:	81 e0       	ldi	r24, 0x01	; 1
    2360:	90 e0       	ldi	r25, 0x00	; 0
    2362:	a0 e0       	ldi	r26, 0x00	; 0
    2364:	b0 e0       	ldi	r27, 0x00	; 0
    2366:	04 c0       	rjmp	.+8      	; 0x2370 <__pack_f+0x9c>
    2368:	88 0f       	add	r24, r24
    236a:	99 1f       	adc	r25, r25
    236c:	aa 1f       	adc	r26, r26
    236e:	bb 1f       	adc	r27, r27
    2370:	2a 95       	dec	r18
    2372:	d2 f7       	brpl	.-12     	; 0x2368 <__pack_f+0x94>
    2374:	01 97       	sbiw	r24, 0x01	; 1
    2376:	a1 09       	sbc	r26, r1
    2378:	b1 09       	sbc	r27, r1
    237a:	8e 21       	and	r24, r14
    237c:	9f 21       	and	r25, r15
    237e:	a0 23       	and	r26, r16
    2380:	b1 23       	and	r27, r17
    2382:	00 97       	sbiw	r24, 0x00	; 0
    2384:	a1 05       	cpc	r26, r1
    2386:	b1 05       	cpc	r27, r1
    2388:	21 f0       	breq	.+8      	; 0x2392 <__pack_f+0xbe>
    238a:	81 e0       	ldi	r24, 0x01	; 1
    238c:	90 e0       	ldi	r25, 0x00	; 0
    238e:	a0 e0       	ldi	r26, 0x00	; 0
    2390:	b0 e0       	ldi	r27, 0x00	; 0
    2392:	9a 01       	movw	r18, r20
    2394:	ab 01       	movw	r20, r22
    2396:	28 2b       	or	r18, r24
    2398:	39 2b       	or	r19, r25
    239a:	4a 2b       	or	r20, r26
    239c:	5b 2b       	or	r21, r27
    239e:	da 01       	movw	r26, r20
    23a0:	c9 01       	movw	r24, r18
    23a2:	8f 77       	andi	r24, 0x7F	; 127
    23a4:	90 70       	andi	r25, 0x00	; 0
    23a6:	a0 70       	andi	r26, 0x00	; 0
    23a8:	b0 70       	andi	r27, 0x00	; 0
    23aa:	80 34       	cpi	r24, 0x40	; 64
    23ac:	91 05       	cpc	r25, r1
    23ae:	a1 05       	cpc	r26, r1
    23b0:	b1 05       	cpc	r27, r1
    23b2:	39 f4       	brne	.+14     	; 0x23c2 <__pack_f+0xee>
    23b4:	27 ff       	sbrs	r18, 7
    23b6:	09 c0       	rjmp	.+18     	; 0x23ca <__pack_f+0xf6>
    23b8:	20 5c       	subi	r18, 0xC0	; 192
    23ba:	3f 4f       	sbci	r19, 0xFF	; 255
    23bc:	4f 4f       	sbci	r20, 0xFF	; 255
    23be:	5f 4f       	sbci	r21, 0xFF	; 255
    23c0:	04 c0       	rjmp	.+8      	; 0x23ca <__pack_f+0xf6>
    23c2:	21 5c       	subi	r18, 0xC1	; 193
    23c4:	3f 4f       	sbci	r19, 0xFF	; 255
    23c6:	4f 4f       	sbci	r20, 0xFF	; 255
    23c8:	5f 4f       	sbci	r21, 0xFF	; 255
    23ca:	e0 e0       	ldi	r30, 0x00	; 0
    23cc:	f0 e0       	ldi	r31, 0x00	; 0
    23ce:	20 30       	cpi	r18, 0x00	; 0
    23d0:	a0 e0       	ldi	r26, 0x00	; 0
    23d2:	3a 07       	cpc	r19, r26
    23d4:	a0 e0       	ldi	r26, 0x00	; 0
    23d6:	4a 07       	cpc	r20, r26
    23d8:	a0 e4       	ldi	r26, 0x40	; 64
    23da:	5a 07       	cpc	r21, r26
    23dc:	10 f0       	brcs	.+4      	; 0x23e2 <__pack_f+0x10e>
    23de:	e1 e0       	ldi	r30, 0x01	; 1
    23e0:	f0 e0       	ldi	r31, 0x00	; 0
    23e2:	79 01       	movw	r14, r18
    23e4:	8a 01       	movw	r16, r20
    23e6:	27 c0       	rjmp	.+78     	; 0x2436 <__pack_f+0x162>
    23e8:	60 38       	cpi	r22, 0x80	; 128
    23ea:	71 05       	cpc	r23, r1
    23ec:	64 f5       	brge	.+88     	; 0x2446 <__pack_f+0x172>
    23ee:	fb 01       	movw	r30, r22
    23f0:	e1 58       	subi	r30, 0x81	; 129
    23f2:	ff 4f       	sbci	r31, 0xFF	; 255
    23f4:	d8 01       	movw	r26, r16
    23f6:	c7 01       	movw	r24, r14
    23f8:	8f 77       	andi	r24, 0x7F	; 127
    23fa:	90 70       	andi	r25, 0x00	; 0
    23fc:	a0 70       	andi	r26, 0x00	; 0
    23fe:	b0 70       	andi	r27, 0x00	; 0
    2400:	80 34       	cpi	r24, 0x40	; 64
    2402:	91 05       	cpc	r25, r1
    2404:	a1 05       	cpc	r26, r1
    2406:	b1 05       	cpc	r27, r1
    2408:	39 f4       	brne	.+14     	; 0x2418 <__pack_f+0x144>
    240a:	e7 fe       	sbrs	r14, 7
    240c:	0d c0       	rjmp	.+26     	; 0x2428 <__pack_f+0x154>
    240e:	80 e4       	ldi	r24, 0x40	; 64
    2410:	90 e0       	ldi	r25, 0x00	; 0
    2412:	a0 e0       	ldi	r26, 0x00	; 0
    2414:	b0 e0       	ldi	r27, 0x00	; 0
    2416:	04 c0       	rjmp	.+8      	; 0x2420 <__pack_f+0x14c>
    2418:	8f e3       	ldi	r24, 0x3F	; 63
    241a:	90 e0       	ldi	r25, 0x00	; 0
    241c:	a0 e0       	ldi	r26, 0x00	; 0
    241e:	b0 e0       	ldi	r27, 0x00	; 0
    2420:	e8 0e       	add	r14, r24
    2422:	f9 1e       	adc	r15, r25
    2424:	0a 1f       	adc	r16, r26
    2426:	1b 1f       	adc	r17, r27
    2428:	17 ff       	sbrs	r17, 7
    242a:	05 c0       	rjmp	.+10     	; 0x2436 <__pack_f+0x162>
    242c:	16 95       	lsr	r17
    242e:	07 95       	ror	r16
    2430:	f7 94       	ror	r15
    2432:	e7 94       	ror	r14
    2434:	31 96       	adiw	r30, 0x01	; 1
    2436:	87 e0       	ldi	r24, 0x07	; 7
    2438:	16 95       	lsr	r17
    243a:	07 95       	ror	r16
    243c:	f7 94       	ror	r15
    243e:	e7 94       	ror	r14
    2440:	8a 95       	dec	r24
    2442:	d1 f7       	brne	.-12     	; 0x2438 <__pack_f+0x164>
    2444:	05 c0       	rjmp	.+10     	; 0x2450 <__pack_f+0x17c>
    2446:	ee 24       	eor	r14, r14
    2448:	ff 24       	eor	r15, r15
    244a:	87 01       	movw	r16, r14
    244c:	ef ef       	ldi	r30, 0xFF	; 255
    244e:	f0 e0       	ldi	r31, 0x00	; 0
    2450:	6e 2f       	mov	r22, r30
    2452:	67 95       	ror	r22
    2454:	66 27       	eor	r22, r22
    2456:	67 95       	ror	r22
    2458:	90 2f       	mov	r25, r16
    245a:	9f 77       	andi	r25, 0x7F	; 127
    245c:	d7 94       	ror	r13
    245e:	dd 24       	eor	r13, r13
    2460:	d7 94       	ror	r13
    2462:	8e 2f       	mov	r24, r30
    2464:	86 95       	lsr	r24
    2466:	49 2f       	mov	r20, r25
    2468:	46 2b       	or	r20, r22
    246a:	58 2f       	mov	r21, r24
    246c:	5d 29       	or	r21, r13
    246e:	b7 01       	movw	r22, r14
    2470:	ca 01       	movw	r24, r20
    2472:	1f 91       	pop	r17
    2474:	0f 91       	pop	r16
    2476:	ff 90       	pop	r15
    2478:	ef 90       	pop	r14
    247a:	df 90       	pop	r13
    247c:	08 95       	ret

0000247e <__unpack_f>:
    247e:	fc 01       	movw	r30, r24
    2480:	db 01       	movw	r26, r22
    2482:	40 81       	ld	r20, Z
    2484:	51 81       	ldd	r21, Z+1	; 0x01
    2486:	22 81       	ldd	r18, Z+2	; 0x02
    2488:	62 2f       	mov	r22, r18
    248a:	6f 77       	andi	r22, 0x7F	; 127
    248c:	70 e0       	ldi	r23, 0x00	; 0
    248e:	22 1f       	adc	r18, r18
    2490:	22 27       	eor	r18, r18
    2492:	22 1f       	adc	r18, r18
    2494:	93 81       	ldd	r25, Z+3	; 0x03
    2496:	89 2f       	mov	r24, r25
    2498:	88 0f       	add	r24, r24
    249a:	82 2b       	or	r24, r18
    249c:	28 2f       	mov	r18, r24
    249e:	30 e0       	ldi	r19, 0x00	; 0
    24a0:	99 1f       	adc	r25, r25
    24a2:	99 27       	eor	r25, r25
    24a4:	99 1f       	adc	r25, r25
    24a6:	11 96       	adiw	r26, 0x01	; 1
    24a8:	9c 93       	st	X, r25
    24aa:	11 97       	sbiw	r26, 0x01	; 1
    24ac:	21 15       	cp	r18, r1
    24ae:	31 05       	cpc	r19, r1
    24b0:	a9 f5       	brne	.+106    	; 0x251c <__unpack_f+0x9e>
    24b2:	41 15       	cp	r20, r1
    24b4:	51 05       	cpc	r21, r1
    24b6:	61 05       	cpc	r22, r1
    24b8:	71 05       	cpc	r23, r1
    24ba:	11 f4       	brne	.+4      	; 0x24c0 <__unpack_f+0x42>
    24bc:	82 e0       	ldi	r24, 0x02	; 2
    24be:	37 c0       	rjmp	.+110    	; 0x252e <__unpack_f+0xb0>
    24c0:	82 e8       	ldi	r24, 0x82	; 130
    24c2:	9f ef       	ldi	r25, 0xFF	; 255
    24c4:	13 96       	adiw	r26, 0x03	; 3
    24c6:	9c 93       	st	X, r25
    24c8:	8e 93       	st	-X, r24
    24ca:	12 97       	sbiw	r26, 0x02	; 2
    24cc:	9a 01       	movw	r18, r20
    24ce:	ab 01       	movw	r20, r22
    24d0:	67 e0       	ldi	r22, 0x07	; 7
    24d2:	22 0f       	add	r18, r18
    24d4:	33 1f       	adc	r19, r19
    24d6:	44 1f       	adc	r20, r20
    24d8:	55 1f       	adc	r21, r21
    24da:	6a 95       	dec	r22
    24dc:	d1 f7       	brne	.-12     	; 0x24d2 <__unpack_f+0x54>
    24de:	83 e0       	ldi	r24, 0x03	; 3
    24e0:	8c 93       	st	X, r24
    24e2:	0d c0       	rjmp	.+26     	; 0x24fe <__unpack_f+0x80>
    24e4:	22 0f       	add	r18, r18
    24e6:	33 1f       	adc	r19, r19
    24e8:	44 1f       	adc	r20, r20
    24ea:	55 1f       	adc	r21, r21
    24ec:	12 96       	adiw	r26, 0x02	; 2
    24ee:	8d 91       	ld	r24, X+
    24f0:	9c 91       	ld	r25, X
    24f2:	13 97       	sbiw	r26, 0x03	; 3
    24f4:	01 97       	sbiw	r24, 0x01	; 1
    24f6:	13 96       	adiw	r26, 0x03	; 3
    24f8:	9c 93       	st	X, r25
    24fa:	8e 93       	st	-X, r24
    24fc:	12 97       	sbiw	r26, 0x02	; 2
    24fe:	20 30       	cpi	r18, 0x00	; 0
    2500:	80 e0       	ldi	r24, 0x00	; 0
    2502:	38 07       	cpc	r19, r24
    2504:	80 e0       	ldi	r24, 0x00	; 0
    2506:	48 07       	cpc	r20, r24
    2508:	80 e4       	ldi	r24, 0x40	; 64
    250a:	58 07       	cpc	r21, r24
    250c:	58 f3       	brcs	.-42     	; 0x24e4 <__unpack_f+0x66>
    250e:	14 96       	adiw	r26, 0x04	; 4
    2510:	2d 93       	st	X+, r18
    2512:	3d 93       	st	X+, r19
    2514:	4d 93       	st	X+, r20
    2516:	5c 93       	st	X, r21
    2518:	17 97       	sbiw	r26, 0x07	; 7
    251a:	08 95       	ret
    251c:	2f 3f       	cpi	r18, 0xFF	; 255
    251e:	31 05       	cpc	r19, r1
    2520:	79 f4       	brne	.+30     	; 0x2540 <__unpack_f+0xc2>
    2522:	41 15       	cp	r20, r1
    2524:	51 05       	cpc	r21, r1
    2526:	61 05       	cpc	r22, r1
    2528:	71 05       	cpc	r23, r1
    252a:	19 f4       	brne	.+6      	; 0x2532 <__unpack_f+0xb4>
    252c:	84 e0       	ldi	r24, 0x04	; 4
    252e:	8c 93       	st	X, r24
    2530:	08 95       	ret
    2532:	64 ff       	sbrs	r22, 4
    2534:	03 c0       	rjmp	.+6      	; 0x253c <__unpack_f+0xbe>
    2536:	81 e0       	ldi	r24, 0x01	; 1
    2538:	8c 93       	st	X, r24
    253a:	12 c0       	rjmp	.+36     	; 0x2560 <__unpack_f+0xe2>
    253c:	1c 92       	st	X, r1
    253e:	10 c0       	rjmp	.+32     	; 0x2560 <__unpack_f+0xe2>
    2540:	2f 57       	subi	r18, 0x7F	; 127
    2542:	30 40       	sbci	r19, 0x00	; 0
    2544:	13 96       	adiw	r26, 0x03	; 3
    2546:	3c 93       	st	X, r19
    2548:	2e 93       	st	-X, r18
    254a:	12 97       	sbiw	r26, 0x02	; 2
    254c:	83 e0       	ldi	r24, 0x03	; 3
    254e:	8c 93       	st	X, r24
    2550:	87 e0       	ldi	r24, 0x07	; 7
    2552:	44 0f       	add	r20, r20
    2554:	55 1f       	adc	r21, r21
    2556:	66 1f       	adc	r22, r22
    2558:	77 1f       	adc	r23, r23
    255a:	8a 95       	dec	r24
    255c:	d1 f7       	brne	.-12     	; 0x2552 <__unpack_f+0xd4>
    255e:	70 64       	ori	r23, 0x40	; 64
    2560:	14 96       	adiw	r26, 0x04	; 4
    2562:	4d 93       	st	X+, r20
    2564:	5d 93       	st	X+, r21
    2566:	6d 93       	st	X+, r22
    2568:	7c 93       	st	X, r23
    256a:	17 97       	sbiw	r26, 0x07	; 7
    256c:	08 95       	ret

0000256e <__fpcmp_parts_f>:
    256e:	1f 93       	push	r17
    2570:	dc 01       	movw	r26, r24
    2572:	fb 01       	movw	r30, r22
    2574:	9c 91       	ld	r25, X
    2576:	92 30       	cpi	r25, 0x02	; 2
    2578:	08 f4       	brcc	.+2      	; 0x257c <__fpcmp_parts_f+0xe>
    257a:	47 c0       	rjmp	.+142    	; 0x260a <__fpcmp_parts_f+0x9c>
    257c:	80 81       	ld	r24, Z
    257e:	82 30       	cpi	r24, 0x02	; 2
    2580:	08 f4       	brcc	.+2      	; 0x2584 <__fpcmp_parts_f+0x16>
    2582:	43 c0       	rjmp	.+134    	; 0x260a <__fpcmp_parts_f+0x9c>
    2584:	94 30       	cpi	r25, 0x04	; 4
    2586:	51 f4       	brne	.+20     	; 0x259c <__fpcmp_parts_f+0x2e>
    2588:	11 96       	adiw	r26, 0x01	; 1
    258a:	1c 91       	ld	r17, X
    258c:	84 30       	cpi	r24, 0x04	; 4
    258e:	99 f5       	brne	.+102    	; 0x25f6 <__fpcmp_parts_f+0x88>
    2590:	81 81       	ldd	r24, Z+1	; 0x01
    2592:	68 2f       	mov	r22, r24
    2594:	70 e0       	ldi	r23, 0x00	; 0
    2596:	61 1b       	sub	r22, r17
    2598:	71 09       	sbc	r23, r1
    259a:	3f c0       	rjmp	.+126    	; 0x261a <__fpcmp_parts_f+0xac>
    259c:	84 30       	cpi	r24, 0x04	; 4
    259e:	21 f0       	breq	.+8      	; 0x25a8 <__fpcmp_parts_f+0x3a>
    25a0:	92 30       	cpi	r25, 0x02	; 2
    25a2:	31 f4       	brne	.+12     	; 0x25b0 <__fpcmp_parts_f+0x42>
    25a4:	82 30       	cpi	r24, 0x02	; 2
    25a6:	b9 f1       	breq	.+110    	; 0x2616 <__fpcmp_parts_f+0xa8>
    25a8:	81 81       	ldd	r24, Z+1	; 0x01
    25aa:	88 23       	and	r24, r24
    25ac:	89 f1       	breq	.+98     	; 0x2610 <__fpcmp_parts_f+0xa2>
    25ae:	2d c0       	rjmp	.+90     	; 0x260a <__fpcmp_parts_f+0x9c>
    25b0:	11 96       	adiw	r26, 0x01	; 1
    25b2:	1c 91       	ld	r17, X
    25b4:	11 97       	sbiw	r26, 0x01	; 1
    25b6:	82 30       	cpi	r24, 0x02	; 2
    25b8:	f1 f0       	breq	.+60     	; 0x25f6 <__fpcmp_parts_f+0x88>
    25ba:	81 81       	ldd	r24, Z+1	; 0x01
    25bc:	18 17       	cp	r17, r24
    25be:	d9 f4       	brne	.+54     	; 0x25f6 <__fpcmp_parts_f+0x88>
    25c0:	12 96       	adiw	r26, 0x02	; 2
    25c2:	2d 91       	ld	r18, X+
    25c4:	3c 91       	ld	r19, X
    25c6:	13 97       	sbiw	r26, 0x03	; 3
    25c8:	82 81       	ldd	r24, Z+2	; 0x02
    25ca:	93 81       	ldd	r25, Z+3	; 0x03
    25cc:	82 17       	cp	r24, r18
    25ce:	93 07       	cpc	r25, r19
    25d0:	94 f0       	brlt	.+36     	; 0x25f6 <__fpcmp_parts_f+0x88>
    25d2:	28 17       	cp	r18, r24
    25d4:	39 07       	cpc	r19, r25
    25d6:	bc f0       	brlt	.+46     	; 0x2606 <__fpcmp_parts_f+0x98>
    25d8:	14 96       	adiw	r26, 0x04	; 4
    25da:	8d 91       	ld	r24, X+
    25dc:	9d 91       	ld	r25, X+
    25de:	0d 90       	ld	r0, X+
    25e0:	bc 91       	ld	r27, X
    25e2:	a0 2d       	mov	r26, r0
    25e4:	24 81       	ldd	r18, Z+4	; 0x04
    25e6:	35 81       	ldd	r19, Z+5	; 0x05
    25e8:	46 81       	ldd	r20, Z+6	; 0x06
    25ea:	57 81       	ldd	r21, Z+7	; 0x07
    25ec:	28 17       	cp	r18, r24
    25ee:	39 07       	cpc	r19, r25
    25f0:	4a 07       	cpc	r20, r26
    25f2:	5b 07       	cpc	r21, r27
    25f4:	18 f4       	brcc	.+6      	; 0x25fc <__fpcmp_parts_f+0x8e>
    25f6:	11 23       	and	r17, r17
    25f8:	41 f0       	breq	.+16     	; 0x260a <__fpcmp_parts_f+0x9c>
    25fa:	0a c0       	rjmp	.+20     	; 0x2610 <__fpcmp_parts_f+0xa2>
    25fc:	82 17       	cp	r24, r18
    25fe:	93 07       	cpc	r25, r19
    2600:	a4 07       	cpc	r26, r20
    2602:	b5 07       	cpc	r27, r21
    2604:	40 f4       	brcc	.+16     	; 0x2616 <__fpcmp_parts_f+0xa8>
    2606:	11 23       	and	r17, r17
    2608:	19 f0       	breq	.+6      	; 0x2610 <__fpcmp_parts_f+0xa2>
    260a:	61 e0       	ldi	r22, 0x01	; 1
    260c:	70 e0       	ldi	r23, 0x00	; 0
    260e:	05 c0       	rjmp	.+10     	; 0x261a <__fpcmp_parts_f+0xac>
    2610:	6f ef       	ldi	r22, 0xFF	; 255
    2612:	7f ef       	ldi	r23, 0xFF	; 255
    2614:	02 c0       	rjmp	.+4      	; 0x261a <__fpcmp_parts_f+0xac>
    2616:	60 e0       	ldi	r22, 0x00	; 0
    2618:	70 e0       	ldi	r23, 0x00	; 0
    261a:	cb 01       	movw	r24, r22
    261c:	1f 91       	pop	r17
    261e:	08 95       	ret

00002620 <__mulsi3>:
    2620:	62 9f       	mul	r22, r18
    2622:	d0 01       	movw	r26, r0
    2624:	73 9f       	mul	r23, r19
    2626:	f0 01       	movw	r30, r0
    2628:	82 9f       	mul	r24, r18
    262a:	e0 0d       	add	r30, r0
    262c:	f1 1d       	adc	r31, r1
    262e:	64 9f       	mul	r22, r20
    2630:	e0 0d       	add	r30, r0
    2632:	f1 1d       	adc	r31, r1
    2634:	92 9f       	mul	r25, r18
    2636:	f0 0d       	add	r31, r0
    2638:	83 9f       	mul	r24, r19
    263a:	f0 0d       	add	r31, r0
    263c:	74 9f       	mul	r23, r20
    263e:	f0 0d       	add	r31, r0
    2640:	65 9f       	mul	r22, r21
    2642:	f0 0d       	add	r31, r0
    2644:	99 27       	eor	r25, r25
    2646:	72 9f       	mul	r23, r18
    2648:	b0 0d       	add	r27, r0
    264a:	e1 1d       	adc	r30, r1
    264c:	f9 1f       	adc	r31, r25
    264e:	63 9f       	mul	r22, r19
    2650:	b0 0d       	add	r27, r0
    2652:	e1 1d       	adc	r30, r1
    2654:	f9 1f       	adc	r31, r25
    2656:	bd 01       	movw	r22, r26
    2658:	cf 01       	movw	r24, r30
    265a:	11 24       	eor	r1, r1
    265c:	08 95       	ret

0000265e <__udivmodqi4>:
    265e:	99 1b       	sub	r25, r25
    2660:	79 e0       	ldi	r23, 0x09	; 9
    2662:	04 c0       	rjmp	.+8      	; 0x266c <__udivmodqi4_ep>

00002664 <__udivmodqi4_loop>:
    2664:	99 1f       	adc	r25, r25
    2666:	96 17       	cp	r25, r22
    2668:	08 f0       	brcs	.+2      	; 0x266c <__udivmodqi4_ep>
    266a:	96 1b       	sub	r25, r22

0000266c <__udivmodqi4_ep>:
    266c:	88 1f       	adc	r24, r24
    266e:	7a 95       	dec	r23
    2670:	c9 f7       	brne	.-14     	; 0x2664 <__udivmodqi4_loop>
    2672:	80 95       	com	r24
    2674:	08 95       	ret

00002676 <__divmodhi4>:
    2676:	97 fb       	bst	r25, 7
    2678:	09 2e       	mov	r0, r25
    267a:	07 26       	eor	r0, r23
    267c:	0a d0       	rcall	.+20     	; 0x2692 <__divmodhi4_neg1>
    267e:	77 fd       	sbrc	r23, 7
    2680:	04 d0       	rcall	.+8      	; 0x268a <__divmodhi4_neg2>
    2682:	0c d0       	rcall	.+24     	; 0x269c <__udivmodhi4>
    2684:	06 d0       	rcall	.+12     	; 0x2692 <__divmodhi4_neg1>
    2686:	00 20       	and	r0, r0
    2688:	1a f4       	brpl	.+6      	; 0x2690 <__divmodhi4_exit>

0000268a <__divmodhi4_neg2>:
    268a:	70 95       	com	r23
    268c:	61 95       	neg	r22
    268e:	7f 4f       	sbci	r23, 0xFF	; 255

00002690 <__divmodhi4_exit>:
    2690:	08 95       	ret

00002692 <__divmodhi4_neg1>:
    2692:	f6 f7       	brtc	.-4      	; 0x2690 <__divmodhi4_exit>
    2694:	90 95       	com	r25
    2696:	81 95       	neg	r24
    2698:	9f 4f       	sbci	r25, 0xFF	; 255
    269a:	08 95       	ret

0000269c <__udivmodhi4>:
    269c:	aa 1b       	sub	r26, r26
    269e:	bb 1b       	sub	r27, r27
    26a0:	51 e1       	ldi	r21, 0x11	; 17
    26a2:	07 c0       	rjmp	.+14     	; 0x26b2 <__udivmodhi4_ep>

000026a4 <__udivmodhi4_loop>:
    26a4:	aa 1f       	adc	r26, r26
    26a6:	bb 1f       	adc	r27, r27
    26a8:	a6 17       	cp	r26, r22
    26aa:	b7 07       	cpc	r27, r23
    26ac:	10 f0       	brcs	.+4      	; 0x26b2 <__udivmodhi4_ep>
    26ae:	a6 1b       	sub	r26, r22
    26b0:	b7 0b       	sbc	r27, r23

000026b2 <__udivmodhi4_ep>:
    26b2:	88 1f       	adc	r24, r24
    26b4:	99 1f       	adc	r25, r25
    26b6:	5a 95       	dec	r21
    26b8:	a9 f7       	brne	.-22     	; 0x26a4 <__udivmodhi4_loop>
    26ba:	80 95       	com	r24
    26bc:	90 95       	com	r25
    26be:	bc 01       	movw	r22, r24
    26c0:	cd 01       	movw	r24, r26
    26c2:	08 95       	ret

000026c4 <__prologue_saves__>:
    26c4:	2f 92       	push	r2
    26c6:	3f 92       	push	r3
    26c8:	4f 92       	push	r4
    26ca:	5f 92       	push	r5
    26cc:	6f 92       	push	r6
    26ce:	7f 92       	push	r7
    26d0:	8f 92       	push	r8
    26d2:	9f 92       	push	r9
    26d4:	af 92       	push	r10
    26d6:	bf 92       	push	r11
    26d8:	cf 92       	push	r12
    26da:	df 92       	push	r13
    26dc:	ef 92       	push	r14
    26de:	ff 92       	push	r15
    26e0:	0f 93       	push	r16
    26e2:	1f 93       	push	r17
    26e4:	cf 93       	push	r28
    26e6:	df 93       	push	r29
    26e8:	cd b7       	in	r28, 0x3d	; 61
    26ea:	de b7       	in	r29, 0x3e	; 62
    26ec:	ca 1b       	sub	r28, r26
    26ee:	db 0b       	sbc	r29, r27
    26f0:	0f b6       	in	r0, 0x3f	; 63
    26f2:	f8 94       	cli
    26f4:	de bf       	out	0x3e, r29	; 62
    26f6:	0f be       	out	0x3f, r0	; 63
    26f8:	cd bf       	out	0x3d, r28	; 61
    26fa:	09 94       	ijmp

000026fc <__epilogue_restores__>:
    26fc:	2a 88       	ldd	r2, Y+18	; 0x12
    26fe:	39 88       	ldd	r3, Y+17	; 0x11
    2700:	48 88       	ldd	r4, Y+16	; 0x10
    2702:	5f 84       	ldd	r5, Y+15	; 0x0f
    2704:	6e 84       	ldd	r6, Y+14	; 0x0e
    2706:	7d 84       	ldd	r7, Y+13	; 0x0d
    2708:	8c 84       	ldd	r8, Y+12	; 0x0c
    270a:	9b 84       	ldd	r9, Y+11	; 0x0b
    270c:	aa 84       	ldd	r10, Y+10	; 0x0a
    270e:	b9 84       	ldd	r11, Y+9	; 0x09
    2710:	c8 84       	ldd	r12, Y+8	; 0x08
    2712:	df 80       	ldd	r13, Y+7	; 0x07
    2714:	ee 80       	ldd	r14, Y+6	; 0x06
    2716:	fd 80       	ldd	r15, Y+5	; 0x05
    2718:	0c 81       	ldd	r16, Y+4	; 0x04
    271a:	1b 81       	ldd	r17, Y+3	; 0x03
    271c:	aa 81       	ldd	r26, Y+2	; 0x02
    271e:	b9 81       	ldd	r27, Y+1	; 0x01
    2720:	ce 0f       	add	r28, r30
    2722:	d1 1d       	adc	r29, r1
    2724:	0f b6       	in	r0, 0x3f	; 63
    2726:	f8 94       	cli
    2728:	de bf       	out	0x3e, r29	; 62
    272a:	0f be       	out	0x3f, r0	; 63
    272c:	cd bf       	out	0x3d, r28	; 61
    272e:	ed 01       	movw	r28, r26
    2730:	08 95       	ret

00002732 <do_rand>:
    2732:	a0 e0       	ldi	r26, 0x00	; 0
    2734:	b0 e0       	ldi	r27, 0x00	; 0
    2736:	ef e9       	ldi	r30, 0x9F	; 159
    2738:	f3 e1       	ldi	r31, 0x13	; 19
    273a:	0c 94 6a 13 	jmp	0x26d4	; 0x26d4 <__prologue_saves__+0x10>
    273e:	ec 01       	movw	r28, r24
    2740:	a8 80       	ld	r10, Y
    2742:	b9 80       	ldd	r11, Y+1	; 0x01
    2744:	ca 80       	ldd	r12, Y+2	; 0x02
    2746:	db 80       	ldd	r13, Y+3	; 0x03
    2748:	a1 14       	cp	r10, r1
    274a:	b1 04       	cpc	r11, r1
    274c:	c1 04       	cpc	r12, r1
    274e:	d1 04       	cpc	r13, r1
    2750:	41 f4       	brne	.+16     	; 0x2762 <do_rand+0x30>
    2752:	84 e2       	ldi	r24, 0x24	; 36
    2754:	a8 2e       	mov	r10, r24
    2756:	89 ed       	ldi	r24, 0xD9	; 217
    2758:	b8 2e       	mov	r11, r24
    275a:	8b e5       	ldi	r24, 0x5B	; 91
    275c:	c8 2e       	mov	r12, r24
    275e:	87 e0       	ldi	r24, 0x07	; 7
    2760:	d8 2e       	mov	r13, r24
    2762:	c6 01       	movw	r24, r12
    2764:	b5 01       	movw	r22, r10
    2766:	2d e1       	ldi	r18, 0x1D	; 29
    2768:	33 ef       	ldi	r19, 0xF3	; 243
    276a:	41 e0       	ldi	r20, 0x01	; 1
    276c:	50 e0       	ldi	r21, 0x00	; 0
    276e:	0e 94 c3 15 	call	0x2b86	; 0x2b86 <__divmodsi4>
    2772:	27 ea       	ldi	r18, 0xA7	; 167
    2774:	31 e4       	ldi	r19, 0x41	; 65
    2776:	40 e0       	ldi	r20, 0x00	; 0
    2778:	50 e0       	ldi	r21, 0x00	; 0
    277a:	0e 94 10 13 	call	0x2620	; 0x2620 <__mulsi3>
    277e:	7b 01       	movw	r14, r22
    2780:	8c 01       	movw	r16, r24
    2782:	c6 01       	movw	r24, r12
    2784:	b5 01       	movw	r22, r10
    2786:	2d e1       	ldi	r18, 0x1D	; 29
    2788:	33 ef       	ldi	r19, 0xF3	; 243
    278a:	41 e0       	ldi	r20, 0x01	; 1
    278c:	50 e0       	ldi	r21, 0x00	; 0
    278e:	0e 94 c3 15 	call	0x2b86	; 0x2b86 <__divmodsi4>
    2792:	ca 01       	movw	r24, r20
    2794:	b9 01       	movw	r22, r18
    2796:	2c ee       	ldi	r18, 0xEC	; 236
    2798:	34 ef       	ldi	r19, 0xF4	; 244
    279a:	4f ef       	ldi	r20, 0xFF	; 255
    279c:	5f ef       	ldi	r21, 0xFF	; 255
    279e:	0e 94 10 13 	call	0x2620	; 0x2620 <__mulsi3>
    27a2:	6e 0d       	add	r22, r14
    27a4:	7f 1d       	adc	r23, r15
    27a6:	80 1f       	adc	r24, r16
    27a8:	91 1f       	adc	r25, r17
    27aa:	97 ff       	sbrs	r25, 7
    27ac:	04 c0       	rjmp	.+8      	; 0x27b6 <do_rand+0x84>
    27ae:	61 50       	subi	r22, 0x01	; 1
    27b0:	70 40       	sbci	r23, 0x00	; 0
    27b2:	80 40       	sbci	r24, 0x00	; 0
    27b4:	90 48       	sbci	r25, 0x80	; 128
    27b6:	68 83       	st	Y, r22
    27b8:	79 83       	std	Y+1, r23	; 0x01
    27ba:	8a 83       	std	Y+2, r24	; 0x02
    27bc:	9b 83       	std	Y+3, r25	; 0x03
    27be:	9b 01       	movw	r18, r22
    27c0:	3f 77       	andi	r19, 0x7F	; 127
    27c2:	c9 01       	movw	r24, r18
    27c4:	cd b7       	in	r28, 0x3d	; 61
    27c6:	de b7       	in	r29, 0x3e	; 62
    27c8:	ea e0       	ldi	r30, 0x0A	; 10
    27ca:	0c 94 86 13 	jmp	0x270c	; 0x270c <__epilogue_restores__+0x10>

000027ce <rand_r>:
    27ce:	0e 94 99 13 	call	0x2732	; 0x2732 <do_rand>
    27d2:	08 95       	ret

000027d4 <rand>:
    27d4:	82 e7       	ldi	r24, 0x72	; 114
    27d6:	91 e0       	ldi	r25, 0x01	; 1
    27d8:	0e 94 99 13 	call	0x2732	; 0x2732 <do_rand>
    27dc:	08 95       	ret

000027de <srand>:
    27de:	a0 e0       	ldi	r26, 0x00	; 0
    27e0:	b0 e0       	ldi	r27, 0x00	; 0
    27e2:	80 93 72 01 	sts	0x0172, r24
    27e6:	90 93 73 01 	sts	0x0173, r25
    27ea:	a0 93 74 01 	sts	0x0174, r26
    27ee:	b0 93 75 01 	sts	0x0175, r27
    27f2:	08 95       	ret

000027f4 <itoa>:
    27f4:	fb 01       	movw	r30, r22
    27f6:	9f 01       	movw	r18, r30
    27f8:	e8 94       	clt
    27fa:	42 30       	cpi	r20, 0x02	; 2
    27fc:	c4 f0       	brlt	.+48     	; 0x282e <itoa+0x3a>
    27fe:	45 32       	cpi	r20, 0x25	; 37
    2800:	b4 f4       	brge	.+44     	; 0x282e <itoa+0x3a>
    2802:	4a 30       	cpi	r20, 0x0A	; 10
    2804:	29 f4       	brne	.+10     	; 0x2810 <itoa+0x1c>
    2806:	97 fb       	bst	r25, 7
    2808:	1e f4       	brtc	.+6      	; 0x2810 <itoa+0x1c>
    280a:	90 95       	com	r25
    280c:	81 95       	neg	r24
    280e:	9f 4f       	sbci	r25, 0xFF	; 255
    2810:	64 2f       	mov	r22, r20
    2812:	77 27       	eor	r23, r23
    2814:	0e 94 4e 13 	call	0x269c	; 0x269c <__udivmodhi4>
    2818:	80 5d       	subi	r24, 0xD0	; 208
    281a:	8a 33       	cpi	r24, 0x3A	; 58
    281c:	0c f0       	brlt	.+2      	; 0x2820 <itoa+0x2c>
    281e:	89 5d       	subi	r24, 0xD9	; 217
    2820:	81 93       	st	Z+, r24
    2822:	cb 01       	movw	r24, r22
    2824:	00 97       	sbiw	r24, 0x00	; 0
    2826:	a1 f7       	brne	.-24     	; 0x2810 <itoa+0x1c>
    2828:	16 f4       	brtc	.+4      	; 0x282e <itoa+0x3a>
    282a:	5d e2       	ldi	r21, 0x2D	; 45
    282c:	51 93       	st	Z+, r21
    282e:	10 82       	st	Z, r1
    2830:	c9 01       	movw	r24, r18
    2832:	0c 94 7f 14 	jmp	0x28fe	; 0x28fe <strrev>

00002836 <cos>:
    2836:	03 d0       	rcall	.+6      	; 0x283e <__fp_rempio2>
    2838:	e3 95       	inc	r30
    283a:	28 c0       	rjmp	.+80     	; 0x288c <__fp_sinus>
    283c:	e4 c0       	rjmp	.+456    	; 0x2a06 <__fp_nan>

0000283e <__fp_rempio2>:
    283e:	3f d0       	rcall	.+126    	; 0x28be <__fp_splitA>
    2840:	e8 f3       	brcs	.-6      	; 0x283c <cos+0x6>
    2842:	e8 94       	clt
    2844:	e0 e0       	ldi	r30, 0x00	; 0
    2846:	bb 27       	eor	r27, r27
    2848:	9f 57       	subi	r25, 0x7F	; 127
    284a:	f0 f0       	brcs	.+60     	; 0x2888 <__fp_rempio2+0x4a>
    284c:	2a ed       	ldi	r18, 0xDA	; 218
    284e:	3f e0       	ldi	r19, 0x0F	; 15
    2850:	49 ec       	ldi	r20, 0xC9	; 201
    2852:	06 c0       	rjmp	.+12     	; 0x2860 <__fp_rempio2+0x22>
    2854:	ee 0f       	add	r30, r30
    2856:	bb 0f       	add	r27, r27
    2858:	66 1f       	adc	r22, r22
    285a:	77 1f       	adc	r23, r23
    285c:	88 1f       	adc	r24, r24
    285e:	28 f0       	brcs	.+10     	; 0x286a <__fp_rempio2+0x2c>
    2860:	b2 3a       	cpi	r27, 0xA2	; 162
    2862:	62 07       	cpc	r22, r18
    2864:	73 07       	cpc	r23, r19
    2866:	84 07       	cpc	r24, r20
    2868:	28 f0       	brcs	.+10     	; 0x2874 <__fp_rempio2+0x36>
    286a:	b2 5a       	subi	r27, 0xA2	; 162
    286c:	62 0b       	sbc	r22, r18
    286e:	73 0b       	sbc	r23, r19
    2870:	84 0b       	sbc	r24, r20
    2872:	e3 95       	inc	r30
    2874:	9a 95       	dec	r25
    2876:	72 f7       	brpl	.-36     	; 0x2854 <__fp_rempio2+0x16>
    2878:	80 38       	cpi	r24, 0x80	; 128
    287a:	30 f4       	brcc	.+12     	; 0x2888 <__fp_rempio2+0x4a>
    287c:	9a 95       	dec	r25
    287e:	bb 0f       	add	r27, r27
    2880:	66 1f       	adc	r22, r22
    2882:	77 1f       	adc	r23, r23
    2884:	88 1f       	adc	r24, r24
    2886:	d2 f7       	brpl	.-12     	; 0x287c <__fp_rempio2+0x3e>
    2888:	90 48       	sbci	r25, 0x80	; 128
    288a:	b1 c0       	rjmp	.+354    	; 0x29ee <__fp_mpack_finite>

0000288c <__fp_sinus>:
    288c:	ef 93       	push	r30
    288e:	e0 ff       	sbrs	r30, 0
    2890:	06 c0       	rjmp	.+12     	; 0x289e <__fp_sinus+0x12>
    2892:	a2 ea       	ldi	r26, 0xA2	; 162
    2894:	2a ed       	ldi	r18, 0xDA	; 218
    2896:	3f e0       	ldi	r19, 0x0F	; 15
    2898:	49 ec       	ldi	r20, 0xC9	; 201
    289a:	5f eb       	ldi	r21, 0xBF	; 191
    289c:	4d d0       	rcall	.+154    	; 0x2938 <__addsf3x>
    289e:	d5 d0       	rcall	.+426    	; 0x2a4a <__fp_round>
    28a0:	0f 90       	pop	r0
    28a2:	03 94       	inc	r0
    28a4:	01 fc       	sbrc	r0, 1
    28a6:	90 58       	subi	r25, 0x80	; 128
    28a8:	e4 e5       	ldi	r30, 0x54	; 84
    28aa:	f0 e0       	ldi	r31, 0x00	; 0
    28ac:	af c0       	rjmp	.+350    	; 0x2a0c <__fp_powsodd>

000028ae <__fp_split3>:
    28ae:	57 fd       	sbrc	r21, 7
    28b0:	90 58       	subi	r25, 0x80	; 128
    28b2:	44 0f       	add	r20, r20
    28b4:	55 1f       	adc	r21, r21
    28b6:	59 f0       	breq	.+22     	; 0x28ce <__fp_splitA+0x10>
    28b8:	5f 3f       	cpi	r21, 0xFF	; 255
    28ba:	71 f0       	breq	.+28     	; 0x28d8 <__fp_splitA+0x1a>
    28bc:	47 95       	ror	r20

000028be <__fp_splitA>:
    28be:	88 0f       	add	r24, r24
    28c0:	97 fb       	bst	r25, 7
    28c2:	99 1f       	adc	r25, r25
    28c4:	61 f0       	breq	.+24     	; 0x28de <__fp_splitA+0x20>
    28c6:	9f 3f       	cpi	r25, 0xFF	; 255
    28c8:	79 f0       	breq	.+30     	; 0x28e8 <__fp_splitA+0x2a>
    28ca:	87 95       	ror	r24
    28cc:	08 95       	ret
    28ce:	12 16       	cp	r1, r18
    28d0:	13 06       	cpc	r1, r19
    28d2:	14 06       	cpc	r1, r20
    28d4:	55 1f       	adc	r21, r21
    28d6:	f2 cf       	rjmp	.-28     	; 0x28bc <__fp_split3+0xe>
    28d8:	46 95       	lsr	r20
    28da:	f1 df       	rcall	.-30     	; 0x28be <__fp_splitA>
    28dc:	08 c0       	rjmp	.+16     	; 0x28ee <__fp_splitA+0x30>
    28de:	16 16       	cp	r1, r22
    28e0:	17 06       	cpc	r1, r23
    28e2:	18 06       	cpc	r1, r24
    28e4:	99 1f       	adc	r25, r25
    28e6:	f1 cf       	rjmp	.-30     	; 0x28ca <__fp_splitA+0xc>
    28e8:	86 95       	lsr	r24
    28ea:	71 05       	cpc	r23, r1
    28ec:	61 05       	cpc	r22, r1
    28ee:	08 94       	sec
    28f0:	08 95       	ret

000028f2 <sin>:
    28f2:	9f 93       	push	r25
    28f4:	a4 df       	rcall	.-184    	; 0x283e <__fp_rempio2>
    28f6:	0f 90       	pop	r0
    28f8:	07 fc       	sbrc	r0, 7
    28fa:	ee 5f       	subi	r30, 0xFE	; 254
    28fc:	c7 cf       	rjmp	.-114    	; 0x288c <__fp_sinus>

000028fe <strrev>:
    28fe:	dc 01       	movw	r26, r24
    2900:	fc 01       	movw	r30, r24
    2902:	67 2f       	mov	r22, r23
    2904:	71 91       	ld	r23, Z+
    2906:	77 23       	and	r23, r23
    2908:	e1 f7       	brne	.-8      	; 0x2902 <strrev+0x4>
    290a:	32 97       	sbiw	r30, 0x02	; 2
    290c:	04 c0       	rjmp	.+8      	; 0x2916 <strrev+0x18>
    290e:	7c 91       	ld	r23, X
    2910:	6d 93       	st	X+, r22
    2912:	70 83       	st	Z, r23
    2914:	62 91       	ld	r22, -Z
    2916:	ae 17       	cp	r26, r30
    2918:	bf 07       	cpc	r27, r31
    291a:	c8 f3       	brcs	.-14     	; 0x290e <strrev+0x10>
    291c:	08 95       	ret
    291e:	87 d0       	rcall	.+270    	; 0x2a2e <__fp_pscA>
    2920:	30 f0       	brcs	.+12     	; 0x292e <strrev+0x30>
    2922:	8c d0       	rcall	.+280    	; 0x2a3c <__fp_pscB>
    2924:	20 f0       	brcs	.+8      	; 0x292e <strrev+0x30>
    2926:	31 f4       	brne	.+12     	; 0x2934 <strrev+0x36>
    2928:	9f 3f       	cpi	r25, 0xFF	; 255
    292a:	11 f4       	brne	.+4      	; 0x2930 <strrev+0x32>
    292c:	1e f4       	brtc	.+6      	; 0x2934 <strrev+0x36>
    292e:	6b c0       	rjmp	.+214    	; 0x2a06 <__fp_nan>
    2930:	0e f4       	brtc	.+2      	; 0x2934 <strrev+0x36>
    2932:	e0 95       	com	r30
    2934:	e7 fb       	bst	r30, 7
    2936:	53 c0       	rjmp	.+166    	; 0x29de <__fp_inf>

00002938 <__addsf3x>:
    2938:	e9 2f       	mov	r30, r25
    293a:	b9 df       	rcall	.-142    	; 0x28ae <__fp_split3>
    293c:	80 f3       	brcs	.-32     	; 0x291e <strrev+0x20>
    293e:	ba 17       	cp	r27, r26
    2940:	62 07       	cpc	r22, r18
    2942:	73 07       	cpc	r23, r19
    2944:	84 07       	cpc	r24, r20
    2946:	95 07       	cpc	r25, r21
    2948:	18 f0       	brcs	.+6      	; 0x2950 <__addsf3x+0x18>
    294a:	71 f4       	brne	.+28     	; 0x2968 <__addsf3x+0x30>
    294c:	9e f5       	brtc	.+102    	; 0x29b4 <__addsf3x+0x7c>
    294e:	8e c0       	rjmp	.+284    	; 0x2a6c <__fp_zero>
    2950:	0e f4       	brtc	.+2      	; 0x2954 <__addsf3x+0x1c>
    2952:	e0 95       	com	r30
    2954:	0b 2e       	mov	r0, r27
    2956:	ba 2f       	mov	r27, r26
    2958:	a0 2d       	mov	r26, r0
    295a:	0b 01       	movw	r0, r22
    295c:	b9 01       	movw	r22, r18
    295e:	90 01       	movw	r18, r0
    2960:	0c 01       	movw	r0, r24
    2962:	ca 01       	movw	r24, r20
    2964:	a0 01       	movw	r20, r0
    2966:	11 24       	eor	r1, r1
    2968:	ff 27       	eor	r31, r31
    296a:	59 1b       	sub	r21, r25
    296c:	99 f0       	breq	.+38     	; 0x2994 <__addsf3x+0x5c>
    296e:	59 3f       	cpi	r21, 0xF9	; 249
    2970:	50 f4       	brcc	.+20     	; 0x2986 <__addsf3x+0x4e>
    2972:	50 3e       	cpi	r21, 0xE0	; 224
    2974:	68 f1       	brcs	.+90     	; 0x29d0 <__addsf3x+0x98>
    2976:	1a 16       	cp	r1, r26
    2978:	f0 40       	sbci	r31, 0x00	; 0
    297a:	a2 2f       	mov	r26, r18
    297c:	23 2f       	mov	r18, r19
    297e:	34 2f       	mov	r19, r20
    2980:	44 27       	eor	r20, r20
    2982:	58 5f       	subi	r21, 0xF8	; 248
    2984:	f3 cf       	rjmp	.-26     	; 0x296c <__addsf3x+0x34>
    2986:	46 95       	lsr	r20
    2988:	37 95       	ror	r19
    298a:	27 95       	ror	r18
    298c:	a7 95       	ror	r26
    298e:	f0 40       	sbci	r31, 0x00	; 0
    2990:	53 95       	inc	r21
    2992:	c9 f7       	brne	.-14     	; 0x2986 <__addsf3x+0x4e>
    2994:	7e f4       	brtc	.+30     	; 0x29b4 <__addsf3x+0x7c>
    2996:	1f 16       	cp	r1, r31
    2998:	ba 0b       	sbc	r27, r26
    299a:	62 0b       	sbc	r22, r18
    299c:	73 0b       	sbc	r23, r19
    299e:	84 0b       	sbc	r24, r20
    29a0:	ba f0       	brmi	.+46     	; 0x29d0 <__addsf3x+0x98>
    29a2:	91 50       	subi	r25, 0x01	; 1
    29a4:	a1 f0       	breq	.+40     	; 0x29ce <__addsf3x+0x96>
    29a6:	ff 0f       	add	r31, r31
    29a8:	bb 1f       	adc	r27, r27
    29aa:	66 1f       	adc	r22, r22
    29ac:	77 1f       	adc	r23, r23
    29ae:	88 1f       	adc	r24, r24
    29b0:	c2 f7       	brpl	.-16     	; 0x29a2 <__addsf3x+0x6a>
    29b2:	0e c0       	rjmp	.+28     	; 0x29d0 <__addsf3x+0x98>
    29b4:	ba 0f       	add	r27, r26
    29b6:	62 1f       	adc	r22, r18
    29b8:	73 1f       	adc	r23, r19
    29ba:	84 1f       	adc	r24, r20
    29bc:	48 f4       	brcc	.+18     	; 0x29d0 <__addsf3x+0x98>
    29be:	87 95       	ror	r24
    29c0:	77 95       	ror	r23
    29c2:	67 95       	ror	r22
    29c4:	b7 95       	ror	r27
    29c6:	f7 95       	ror	r31
    29c8:	9e 3f       	cpi	r25, 0xFE	; 254
    29ca:	08 f0       	brcs	.+2      	; 0x29ce <__addsf3x+0x96>
    29cc:	b3 cf       	rjmp	.-154    	; 0x2934 <strrev+0x36>
    29ce:	93 95       	inc	r25
    29d0:	88 0f       	add	r24, r24
    29d2:	08 f0       	brcs	.+2      	; 0x29d6 <__addsf3x+0x9e>
    29d4:	99 27       	eor	r25, r25
    29d6:	ee 0f       	add	r30, r30
    29d8:	97 95       	ror	r25
    29da:	87 95       	ror	r24
    29dc:	08 95       	ret

000029de <__fp_inf>:
    29de:	97 f9       	bld	r25, 7
    29e0:	9f 67       	ori	r25, 0x7F	; 127
    29e2:	80 e8       	ldi	r24, 0x80	; 128
    29e4:	70 e0       	ldi	r23, 0x00	; 0
    29e6:	60 e0       	ldi	r22, 0x00	; 0
    29e8:	08 95       	ret

000029ea <__fp_mpack>:
    29ea:	9f 3f       	cpi	r25, 0xFF	; 255
    29ec:	31 f0       	breq	.+12     	; 0x29fa <__fp_mpack_finite+0xc>

000029ee <__fp_mpack_finite>:
    29ee:	91 50       	subi	r25, 0x01	; 1
    29f0:	20 f4       	brcc	.+8      	; 0x29fa <__fp_mpack_finite+0xc>
    29f2:	87 95       	ror	r24
    29f4:	77 95       	ror	r23
    29f6:	67 95       	ror	r22
    29f8:	b7 95       	ror	r27
    29fa:	88 0f       	add	r24, r24
    29fc:	91 1d       	adc	r25, r1
    29fe:	96 95       	lsr	r25
    2a00:	87 95       	ror	r24
    2a02:	97 f9       	bld	r25, 7
    2a04:	08 95       	ret

00002a06 <__fp_nan>:
    2a06:	9f ef       	ldi	r25, 0xFF	; 255
    2a08:	80 ec       	ldi	r24, 0xC0	; 192
    2a0a:	08 95       	ret

00002a0c <__fp_powsodd>:
    2a0c:	9f 93       	push	r25
    2a0e:	8f 93       	push	r24
    2a10:	7f 93       	push	r23
    2a12:	6f 93       	push	r22
    2a14:	ff 93       	push	r31
    2a16:	ef 93       	push	r30
    2a18:	9b 01       	movw	r18, r22
    2a1a:	ac 01       	movw	r20, r24
    2a1c:	84 d9       	rcall	.-3320   	; 0x1d26 <__mulsf3>
    2a1e:	ef 91       	pop	r30
    2a20:	ff 91       	pop	r31
    2a22:	2b d0       	rcall	.+86     	; 0x2a7a <__fp_powser>
    2a24:	2f 91       	pop	r18
    2a26:	3f 91       	pop	r19
    2a28:	4f 91       	pop	r20
    2a2a:	5f 91       	pop	r21
    2a2c:	7c c9       	rjmp	.-3336   	; 0x1d26 <__mulsf3>

00002a2e <__fp_pscA>:
    2a2e:	00 24       	eor	r0, r0
    2a30:	0a 94       	dec	r0
    2a32:	16 16       	cp	r1, r22
    2a34:	17 06       	cpc	r1, r23
    2a36:	18 06       	cpc	r1, r24
    2a38:	09 06       	cpc	r0, r25
    2a3a:	08 95       	ret

00002a3c <__fp_pscB>:
    2a3c:	00 24       	eor	r0, r0
    2a3e:	0a 94       	dec	r0
    2a40:	12 16       	cp	r1, r18
    2a42:	13 06       	cpc	r1, r19
    2a44:	14 06       	cpc	r1, r20
    2a46:	05 06       	cpc	r0, r21
    2a48:	08 95       	ret

00002a4a <__fp_round>:
    2a4a:	09 2e       	mov	r0, r25
    2a4c:	03 94       	inc	r0
    2a4e:	00 0c       	add	r0, r0
    2a50:	11 f4       	brne	.+4      	; 0x2a56 <__fp_round+0xc>
    2a52:	88 23       	and	r24, r24
    2a54:	52 f0       	brmi	.+20     	; 0x2a6a <__fp_round+0x20>
    2a56:	bb 0f       	add	r27, r27
    2a58:	40 f4       	brcc	.+16     	; 0x2a6a <__fp_round+0x20>
    2a5a:	bf 2b       	or	r27, r31
    2a5c:	11 f4       	brne	.+4      	; 0x2a62 <__fp_round+0x18>
    2a5e:	60 ff       	sbrs	r22, 0
    2a60:	04 c0       	rjmp	.+8      	; 0x2a6a <__fp_round+0x20>
    2a62:	6f 5f       	subi	r22, 0xFF	; 255
    2a64:	7f 4f       	sbci	r23, 0xFF	; 255
    2a66:	8f 4f       	sbci	r24, 0xFF	; 255
    2a68:	9f 4f       	sbci	r25, 0xFF	; 255
    2a6a:	08 95       	ret

00002a6c <__fp_zero>:
    2a6c:	e8 94       	clt

00002a6e <__fp_szero>:
    2a6e:	bb 27       	eor	r27, r27
    2a70:	66 27       	eor	r22, r22
    2a72:	77 27       	eor	r23, r23
    2a74:	cb 01       	movw	r24, r22
    2a76:	97 f9       	bld	r25, 7
    2a78:	08 95       	ret

00002a7a <__fp_powser>:
    2a7a:	df 93       	push	r29
    2a7c:	cf 93       	push	r28
    2a7e:	1f 93       	push	r17
    2a80:	0f 93       	push	r16
    2a82:	ff 92       	push	r15
    2a84:	ef 92       	push	r14
    2a86:	df 92       	push	r13
    2a88:	7b 01       	movw	r14, r22
    2a8a:	8c 01       	movw	r16, r24
    2a8c:	68 94       	set
    2a8e:	05 c0       	rjmp	.+10     	; 0x2a9a <__fp_powser+0x20>
    2a90:	da 2e       	mov	r13, r26
    2a92:	ef 01       	movw	r28, r30
    2a94:	21 d0       	rcall	.+66     	; 0x2ad8 <__mulsf3x>
    2a96:	fe 01       	movw	r30, r28
    2a98:	e8 94       	clt
    2a9a:	a5 91       	lpm	r26, Z+
    2a9c:	25 91       	lpm	r18, Z+
    2a9e:	35 91       	lpm	r19, Z+
    2aa0:	45 91       	lpm	r20, Z+
    2aa2:	55 91       	lpm	r21, Z+
    2aa4:	ae f3       	brts	.-22     	; 0x2a90 <__fp_powser+0x16>
    2aa6:	ef 01       	movw	r28, r30
    2aa8:	47 df       	rcall	.-370    	; 0x2938 <__addsf3x>
    2aaa:	fe 01       	movw	r30, r28
    2aac:	97 01       	movw	r18, r14
    2aae:	a8 01       	movw	r20, r16
    2ab0:	da 94       	dec	r13
    2ab2:	79 f7       	brne	.-34     	; 0x2a92 <__fp_powser+0x18>
    2ab4:	df 90       	pop	r13
    2ab6:	ef 90       	pop	r14
    2ab8:	ff 90       	pop	r15
    2aba:	0f 91       	pop	r16
    2abc:	1f 91       	pop	r17
    2abe:	cf 91       	pop	r28
    2ac0:	df 91       	pop	r29
    2ac2:	08 95       	ret
    2ac4:	b4 df       	rcall	.-152    	; 0x2a2e <__fp_pscA>
    2ac6:	28 f0       	brcs	.+10     	; 0x2ad2 <__fp_powser+0x58>
    2ac8:	b9 df       	rcall	.-142    	; 0x2a3c <__fp_pscB>
    2aca:	18 f0       	brcs	.+6      	; 0x2ad2 <__fp_powser+0x58>
    2acc:	95 23       	and	r25, r21
    2ace:	09 f0       	breq	.+2      	; 0x2ad2 <__fp_powser+0x58>
    2ad0:	86 cf       	rjmp	.-244    	; 0x29de <__fp_inf>
    2ad2:	99 cf       	rjmp	.-206    	; 0x2a06 <__fp_nan>
    2ad4:	11 24       	eor	r1, r1
    2ad6:	cb cf       	rjmp	.-106    	; 0x2a6e <__fp_szero>

00002ad8 <__mulsf3x>:
    2ad8:	ea de       	rcall	.-556    	; 0x28ae <__fp_split3>
    2ada:	a0 f3       	brcs	.-24     	; 0x2ac4 <__fp_powser+0x4a>

00002adc <__mulsf3_pse>:
    2adc:	95 9f       	mul	r25, r21
    2ade:	d1 f3       	breq	.-12     	; 0x2ad4 <__fp_powser+0x5a>
    2ae0:	95 0f       	add	r25, r21
    2ae2:	50 e0       	ldi	r21, 0x00	; 0
    2ae4:	55 1f       	adc	r21, r21
    2ae6:	62 9f       	mul	r22, r18
    2ae8:	f0 01       	movw	r30, r0
    2aea:	72 9f       	mul	r23, r18
    2aec:	bb 27       	eor	r27, r27
    2aee:	f0 0d       	add	r31, r0
    2af0:	b1 1d       	adc	r27, r1
    2af2:	63 9f       	mul	r22, r19
    2af4:	aa 27       	eor	r26, r26
    2af6:	f0 0d       	add	r31, r0
    2af8:	b1 1d       	adc	r27, r1
    2afa:	aa 1f       	adc	r26, r26
    2afc:	64 9f       	mul	r22, r20
    2afe:	66 27       	eor	r22, r22
    2b00:	b0 0d       	add	r27, r0
    2b02:	a1 1d       	adc	r26, r1
    2b04:	66 1f       	adc	r22, r22
    2b06:	82 9f       	mul	r24, r18
    2b08:	22 27       	eor	r18, r18
    2b0a:	b0 0d       	add	r27, r0
    2b0c:	a1 1d       	adc	r26, r1
    2b0e:	62 1f       	adc	r22, r18
    2b10:	73 9f       	mul	r23, r19
    2b12:	b0 0d       	add	r27, r0
    2b14:	a1 1d       	adc	r26, r1
    2b16:	62 1f       	adc	r22, r18
    2b18:	83 9f       	mul	r24, r19
    2b1a:	a0 0d       	add	r26, r0
    2b1c:	61 1d       	adc	r22, r1
    2b1e:	22 1f       	adc	r18, r18
    2b20:	74 9f       	mul	r23, r20
    2b22:	33 27       	eor	r19, r19
    2b24:	a0 0d       	add	r26, r0
    2b26:	61 1d       	adc	r22, r1
    2b28:	23 1f       	adc	r18, r19
    2b2a:	84 9f       	mul	r24, r20
    2b2c:	60 0d       	add	r22, r0
    2b2e:	21 1d       	adc	r18, r1
    2b30:	82 2f       	mov	r24, r18
    2b32:	76 2f       	mov	r23, r22
    2b34:	6a 2f       	mov	r22, r26
    2b36:	11 24       	eor	r1, r1
    2b38:	9f 57       	subi	r25, 0x7F	; 127
    2b3a:	50 40       	sbci	r21, 0x00	; 0
    2b3c:	8a f0       	brmi	.+34     	; 0x2b60 <__mulsf3_pse+0x84>
    2b3e:	e1 f0       	breq	.+56     	; 0x2b78 <__mulsf3_pse+0x9c>
    2b40:	88 23       	and	r24, r24
    2b42:	4a f0       	brmi	.+18     	; 0x2b56 <__mulsf3_pse+0x7a>
    2b44:	ee 0f       	add	r30, r30
    2b46:	ff 1f       	adc	r31, r31
    2b48:	bb 1f       	adc	r27, r27
    2b4a:	66 1f       	adc	r22, r22
    2b4c:	77 1f       	adc	r23, r23
    2b4e:	88 1f       	adc	r24, r24
    2b50:	91 50       	subi	r25, 0x01	; 1
    2b52:	50 40       	sbci	r21, 0x00	; 0
    2b54:	a9 f7       	brne	.-22     	; 0x2b40 <__mulsf3_pse+0x64>
    2b56:	9e 3f       	cpi	r25, 0xFE	; 254
    2b58:	51 05       	cpc	r21, r1
    2b5a:	70 f0       	brcs	.+28     	; 0x2b78 <__mulsf3_pse+0x9c>
    2b5c:	40 cf       	rjmp	.-384    	; 0x29de <__fp_inf>
    2b5e:	87 cf       	rjmp	.-242    	; 0x2a6e <__fp_szero>
    2b60:	5f 3f       	cpi	r21, 0xFF	; 255
    2b62:	ec f3       	brlt	.-6      	; 0x2b5e <__mulsf3_pse+0x82>
    2b64:	98 3e       	cpi	r25, 0xE8	; 232
    2b66:	dc f3       	brlt	.-10     	; 0x2b5e <__mulsf3_pse+0x82>
    2b68:	86 95       	lsr	r24
    2b6a:	77 95       	ror	r23
    2b6c:	67 95       	ror	r22
    2b6e:	b7 95       	ror	r27
    2b70:	f7 95       	ror	r31
    2b72:	e7 95       	ror	r30
    2b74:	9f 5f       	subi	r25, 0xFF	; 255
    2b76:	c1 f7       	brne	.-16     	; 0x2b68 <__mulsf3_pse+0x8c>
    2b78:	fe 2b       	or	r31, r30
    2b7a:	88 0f       	add	r24, r24
    2b7c:	91 1d       	adc	r25, r1
    2b7e:	96 95       	lsr	r25
    2b80:	87 95       	ror	r24
    2b82:	97 f9       	bld	r25, 7
    2b84:	08 95       	ret

00002b86 <__divmodsi4>:
    2b86:	97 fb       	bst	r25, 7
    2b88:	09 2e       	mov	r0, r25
    2b8a:	05 26       	eor	r0, r21
    2b8c:	0e d0       	rcall	.+28     	; 0x2baa <__divmodsi4_neg1>
    2b8e:	57 fd       	sbrc	r21, 7
    2b90:	04 d0       	rcall	.+8      	; 0x2b9a <__divmodsi4_neg2>
    2b92:	14 d0       	rcall	.+40     	; 0x2bbc <__udivmodsi4>
    2b94:	0a d0       	rcall	.+20     	; 0x2baa <__divmodsi4_neg1>
    2b96:	00 1c       	adc	r0, r0
    2b98:	38 f4       	brcc	.+14     	; 0x2ba8 <__divmodsi4_exit>

00002b9a <__divmodsi4_neg2>:
    2b9a:	50 95       	com	r21
    2b9c:	40 95       	com	r20
    2b9e:	30 95       	com	r19
    2ba0:	21 95       	neg	r18
    2ba2:	3f 4f       	sbci	r19, 0xFF	; 255
    2ba4:	4f 4f       	sbci	r20, 0xFF	; 255
    2ba6:	5f 4f       	sbci	r21, 0xFF	; 255

00002ba8 <__divmodsi4_exit>:
    2ba8:	08 95       	ret

00002baa <__divmodsi4_neg1>:
    2baa:	f6 f7       	brtc	.-4      	; 0x2ba8 <__divmodsi4_exit>
    2bac:	90 95       	com	r25
    2bae:	80 95       	com	r24
    2bb0:	70 95       	com	r23
    2bb2:	61 95       	neg	r22
    2bb4:	7f 4f       	sbci	r23, 0xFF	; 255
    2bb6:	8f 4f       	sbci	r24, 0xFF	; 255
    2bb8:	9f 4f       	sbci	r25, 0xFF	; 255
    2bba:	08 95       	ret

00002bbc <__udivmodsi4>:
    2bbc:	a1 e2       	ldi	r26, 0x21	; 33
    2bbe:	1a 2e       	mov	r1, r26
    2bc0:	aa 1b       	sub	r26, r26
    2bc2:	bb 1b       	sub	r27, r27
    2bc4:	fd 01       	movw	r30, r26
    2bc6:	0d c0       	rjmp	.+26     	; 0x2be2 <__udivmodsi4_ep>

00002bc8 <__udivmodsi4_loop>:
    2bc8:	aa 1f       	adc	r26, r26
    2bca:	bb 1f       	adc	r27, r27
    2bcc:	ee 1f       	adc	r30, r30
    2bce:	ff 1f       	adc	r31, r31
    2bd0:	a2 17       	cp	r26, r18
    2bd2:	b3 07       	cpc	r27, r19
    2bd4:	e4 07       	cpc	r30, r20
    2bd6:	f5 07       	cpc	r31, r21
    2bd8:	20 f0       	brcs	.+8      	; 0x2be2 <__udivmodsi4_ep>
    2bda:	a2 1b       	sub	r26, r18
    2bdc:	b3 0b       	sbc	r27, r19
    2bde:	e4 0b       	sbc	r30, r20
    2be0:	f5 0b       	sbc	r31, r21

00002be2 <__udivmodsi4_ep>:
    2be2:	66 1f       	adc	r22, r22
    2be4:	77 1f       	adc	r23, r23
    2be6:	88 1f       	adc	r24, r24
    2be8:	99 1f       	adc	r25, r25
    2bea:	1a 94       	dec	r1
    2bec:	69 f7       	brne	.-38     	; 0x2bc8 <__udivmodsi4_loop>
    2bee:	60 95       	com	r22
    2bf0:	70 95       	com	r23
    2bf2:	80 95       	com	r24
    2bf4:	90 95       	com	r25
    2bf6:	9b 01       	movw	r18, r22
    2bf8:	ac 01       	movw	r20, r24
    2bfa:	bd 01       	movw	r22, r26
    2bfc:	cf 01       	movw	r24, r30
    2bfe:	08 95       	ret

00002c00 <_exit>:
    2c00:	f8 94       	cli

00002c02 <__stop_program>:
    2c02:	ff cf       	rjmp	.-2      	; 0x2c02 <__stop_program>
